(dp0
I0
I2
sI1
I2
sI2
I2
sI3
I1
sI4
I1
sI5
I2
sI6
I2
sI7
I3
sI8
I3
sI9
I3
sI10
I3
sI11
I1
sI12
I2
sI13
I2
sI14
I3
sI15
I3
sI16
I2
sI17
I0
sI18
I2
sI19
I2
sI20
I3
sI21
I2
sI22
I1
sI23
I3
sI24
I2
sI25
I1
sI26
I3
sI27
I2
sI28
I3
sI29
I2
sI30
I2
sI31
I3
sI32
I3
sI33
I3
sI34
I0
sI35
I2
sI36
I3
sI37
I3
sI38
I3
sI39
I2
sI40
I3
sI41
I0
sI42
I3
sI43
I1
sI44
I1
sI45
I0
sI46
I3
sI47
I1
sI48
I3
sI49
I1
sI50
I1
sI51
I0
sI52
I1
sI53
I0
sI54
I2
sI55
I2
sI56
I0
sI57
I0
sI58
I0
sI59
I0
sI60
I2
sI61
I2
sI62
I0
sI63
I0
sI64
I0
sI65
I1
sI66
I1
sI67
I3
sI68
I1
sI69
I0
sI70
I1
sI71
I1
sI72
I3
sI73
I3
sI74
I3
sI75
I0
sI76
I3
sI77
I2
sI78
I3
sI79
I2
sI80
I0
sI81
I3
sI82
I3
sI83
I3
sI84
I3
sI85
I2
sI86
I2
sI87
I3
sI88
I3
sI89
I2
sI90
I3
sI91
I1
sI92
I2
sI93
I1
sI94
I2
sI95
I2
sI96
I3
sI97
I2
sI98
I3
sI99
I3
sI100
I2
sI101
I0
sI102
I2
sI103
I3
sI104
I2
sI105
I1
sI106
I3
sI107
I3
sI108
I2
sI109
I3
sI110
I1
sI111
I2
sI112
I2
sI113
I1
sI114
I2
sI115
I2
sI116
I2
sI117
I2
sI118
I2
sI119
I1
sI120
I1
sI121
I2
sI122
I2
sI123
I1
sI124
I3
sI125
I2
sI126
I3
sI127
I3
sI128
I1
sI129
I2
sI130
I3
sI131
I2
sI132
I2
sI133
I1
sI134
I3
sI135
I2
sI136
I2
sI137
I2
sI138
I3
sI139
I1
sI140
I2
sI141
I2
sI142
I1
sI143
I2
sI144
I2
sI145
I3
sI146
I2
sI147
I3
sI148
I2
sI149
I3
sI150
I3
sI151
I2
sI152
I2
sI153
I0
sI154
I2
sI155
I3
sI156
I1
sI157
I0
sI158
I2
sI159
I1
sI160
I3
sI161
I1
sI162
I3
sI163
I1
sI164
I1
sI165
I1
sI166
I1
sI167
I2
sI168
I2
sI169
I0
sI170
I0
sI171
I0
sI172
I2
sI173
I0
sI174
I0
sI175
I2
sI176
I0
sI177
I2
sI178
I2
sI179
I1
sI180
I1
sI181
I1
sI182
I1
sI183
I3
sI184
I1
sI185
I3
sI186
I1
sI187
I3
sI188
I2
sI189
I0
sI190
I1
sI191
I0
sI192
I2
sI193
I2
sI194
I2
sI195
I3
sI196
I3
sI197
I2
sI198
I3
sI199
I2
sI200
I3
sI201
I2
sI202
I2
sI203
I0
sI204
I1
sI205
I2
sI206
I2
sI207
I1
sI208
I2
sI209
I3
sI210
I2
sI211
I3
sI212
I1
sI213
I2
sI214
I2
sI215
I2
sI216
I3
sI217
I3
sI218
I2
sI219
I1
sI220
I2
sI221
I3
sI222
I3
sI223
I2
sI224
I1
sI225
I1
sI226
I2
sI227
I2
sI228
I1
sI229
I2
sI230
I2
sI231
I2
sI232
I2
sI233
I2
sI234
I1
sI235
I1
sI236
I2
sI237
I2
sI238
I1
sI239
I2
sI240
I3
sI241
I3
sI242
I0
sI243
I2
sI244
I2
sI245
I3
sI246
I3
sI247
I1
sI248
I2
sI249
I2
sI250
I1
sI251
I2
sI252
I2
sI253
I3
sI254
I1
sI255
I2
sI256
I3
sI257
I2
sI258
I3
sI259
I3
sI260
I3
sI261
I2
sI262
I3
sI263
I3
sI264
I2
sI265
I2
sI266
I2
sI267
I1
sI268
I3
sI269
I1
sI270
I3
sI271
I1
sI272
I1
sI273
I2
sI274
I2
sI275
I0
sI276
I1
sI277
I0
sI278
I2
sI279
I3
sI280
I1
sI281
I1
sI282
I0
sI283
I0
sI284
I2
sI285
I0
sI286
I2
sI287
I2
sI288
I0
sI289
I2
sI290
I0
sI291
I2
sI292
I0
sI293
I0
sI294
I0
sI295
I2
sI296
I1
sI297
I1
sI298
I2
sI299
I0
sI300
I3
sI301
I2
sI302
I1
sI303
I0
sI304
I2
sI305
I1
sI306
I1
sI307
I3
sI308
I1
sI309
I3
sI310
I1
sI311
I2
sI312
I2
sI313
I2
sI314
I3
sI315
I3
sI316
I2
sI317
I3
sI318
I3
sI319
I3
sI320
I3
sI321
I2
sI322
I1
sI323
I2
sI324
I2
sI325
I3
sI326
I2
sI327
I1
sI328
I2
sI329
I2
sI330
I1
sI331
I3
sI332
I2
sI333
I3
sI334
I3
sI335
I2
sI336
I0
sI337
I3
sI338
I2
sI339
I2
sI340
I1
sI341
I1
sI342
I2
sI343
I2
sI344
I1
sI345
I2
sI346
I2
sI347
I2
sI348
I2
sI349
I1
sI350
I2
sI351
I2
sI352
I1
sI353
I3
sI354
I2
sI355
I3
sI356
I1
sI357
I3
sI358
I2
sI359
I3
sI360
I3
sI361
I2
sI362
I1
sI363
I2
sI364
I3
sI365
I1
sI366
I2
sI367
I2
sI368
I2
sI369
I3
sI370
I2
sI371
I2
sI372
I3
sI373
I0
sI374
I2
sI375
I3
sI376
I3
sI377
I3
sI378
I2
sI379
I2
sI380
I3
sI381
I3
sI382
I1
sI383
I1
sI384
I2
sI385
I1
sI386
I3
sI387
I1
sI388
I3
sI389
I3
sI390
I0
sI391
I3
sI392
I2
sI393
I1
sI394
I2
sI395
I0
sI396
I2
sI397
I1
sI398
I2
sI399
I1
sI400
I0
sI401
I0
sI402
I2
sI403
I2
sI404
I2
sI405
I2
sI406
I0
sI407
I0
sI408
I1
sI409
I2
sI410
I1
sI411
I0
sI412
I2
sI413
I2
sI414
I3
sI415
I1
sI416
I2
sI417
I3
sI418
I0
sI419
I1
sI420
I3
sI421
I1
sI422
I2
sI423
I3
sI424
I1
sI425
I1
sI426
I3
sI427
I3
sI428
I2
sI429
I2
sI430
I3
sI431
I3
sI432
I3
sI433
I3
sI434
I2
sI435
I2
sI436
I2
sI437
I0
sI438
I2
sI439
I3
sI440
I2
sI441
I2
sI442
I1
sI443
I3
sI444
I3
sI445
I2
sI446
I1
sI447
I2
sI448
I2
sI449
I3
sI450
I3
sI451
I3
sI452
I1
sI453
I3
sI454
I2
sI455
I2
sI456
I1
sI457
I1
sI458
I2
sI459
I2
sI460
I2
sI461
I0
sI462
I1
sI463
I2
sI464
I2
sI465
I2
sI466
I1
sI467
I3
sI468
I2
sI469
I2
sI470
I1
sI471
I1
sI472
I3
sI473
I2
sI474
I3
sI475
I2
sI476
I3
sI477
I1
sI478
I3
sI479
I3
sI480
I2
sI481
I1
sI482
I1
sI483
I3
sI484
I2
sI485
I1
sI486
I1
sI487
I1
sI488
I2
sI489
I3
sI490
I3
sI491
I2
sI492
I2
sI493
I1
sI494
I3
sI495
I1
sI496
I1
sI497
I2
sI498
I1
sI499
I1
sI500
I0
sI501
I0
sI502
I1
sI503
I2
sI504
I1
sI505
I3
sI506
I2
sI507
I3
sI508
I2
sI509
I1
sI510
I1
sI511
I2
sI512
I2
sI513
I2
sI514
I2
sI515
I0
sI516
I2
sI517
I2
sI518
I2
sI519
I2
sI520
I2
sI521
I2
sI522
I1
sI523
I1
sI524
I2
sI525
I3
sI526
I2
sI527
I3
sI528
I1
sI529
I1
sI530
I0
sI531
I1
sI532
I2
sI533
I0
sI534
I1
sI535
I1
sI536
I1
sI537
I1
sI538
I3
sI539
I2
sI540
I2
sI541
I3
sI542
I1
sI543
I1
sI544
I3
sI545
I2
sI546
I1
sI547
I2
sI548
I1
sI549
I1
sI550
I3
sI551
I1
sI552
I3
sI553
I3
sI554
I1
sI555
I1
sI556
I2
sI557
I2
sI558
I3
sI559
I2
sI560
I3
sI561
I3
sI562
I1
sI563
I1
sI564
I2
sI565
I1
sI566
I2
sI567
I3
sI568
I2
sI569
I2
sI570
I1
sI571
I2
sI572
I0
sI573
I0
sI574
I2
sI575
I2
sI576
I1
sI577
I2
sI578
I2
sI579
I1
sI580
I1
sI581
I2
sI582
I1
sI583
I3
sI584
I3
sI585
I3
sI586
I2
sI587
I2
sI588
I3
sI589
I2
sI590
I1
sI591
I2
sI592
I2
sI593
I1
sI594
I3
sI595
I1
sI596
I3
sI597
I1
sI598
I1
sI599
I3
sI600
I2
sI601
I1
sI602
I3
sI603
I1
sI604
I1
sI605
I1
sI606
I2
sI607
I1
sI608
I0
sI609
I3
sI610
I3
sI611
I0
sI612
I1
sI613
I0
sI614
I2
sI615
I3
sI616
I3
sI617
I1
sI618
I1
sI619
I0
sI620
I3
sI621
I2
sI622
I1
sI623
I2
sI624
I2
sI625
I2
sI626
I0
sI627
I2
sI628
I0
sI629
I0
sI630
I2
sI631
I0
sI632
I2
sI633
I2
sI634
I2
sI635
I2
sI636
I3
sI637
I0
sI638
I1
sI639
I1
sI640
I1
sI641
I3
sI642
I3
sI643
I0
sI644
I1
sI645
I2
sI646
I2
sI647
I1
sI648
I2
sI649
I3
sI650
I0
sI651
I1
sI652
I1
sI653
I1
sI654
I3
sI655
I1
sI656
I1
sI657
I1
sI658
I2
sI659
I3
sI660
I3
sI661
I1
sI662
I1
sI663
I2
sI664
I1
sI665
I3
sI666
I1
sI667
I2
sI668
I3
sI669
I2
sI670
I2
sI671
I3
sI672
I2
sI673
I2
sI674
I3
sI675
I3
sI676
I1
sI677
I1
sI678
I1
sI679
I2
sI680
I2
sI681
I2
sI682
I1
sI683
I2
sI684
I0
sI685
I2
sI686
I1
sI687
I2
sI688
I1
sI689
I1
sI690
I2
sI691
I2
sI692
I2
sI693
I1
sI694
I1
sI695
I2
sI696
I1
sI697
I1
sI698
I3
sI699
I3
sI700
I2
sI701
I3
sI702
I3
sI703
I2
sI704
I2
sI705
I1
sI706
I2
sI707
I3
sI708
I2
sI709
I3
sI710
I1
sI711
I1
sI712
I3
sI713
I3
sI714
I1
sI715
I1
sI716
I3
sI717
I3
sI718
I3
sI719
I0
sI720
I1
sI721
I1
sI722
I1
sI723
I3
sI724
I1
sI725
I0
sI726
I1
sI727
I1
sI728
I2
sI729
I3
sI730
I1
sI731
I2
sI732
I1
sI733
I0
sI734
I2
sI735
I2
sI736
I0
sI737
I0
sI738
I2
sI739
I2
sI740
I2
sI741
I2
sI742
I0
sI743
I0
sI744
I2
sI745
I2
sI746
I2
sI747
I0
sI748
I1
sI749
I2
sI750
I1
sI751
I3
sI752
I1
sI753
I0
sI754
I1
sI755
I1
sI756
I3
sI757
I1
sI758
I1
sI759
I0
sI760
I3
sI761
I3
sI762
I1
sI763
I1
sI764
I3
sI765
I2
sI766
I0
sI767
I3
sI768
I1
sI769
I1
sI770
I1
sI771
I2
sI772
I3
sI773
I2
sI774
I3
sI775
I2
sI776
I3
sI777
I3
sI778
I2
sI779
I1
sI780
I2
sI781
I1
sI782
I2
sI783
I3
sI784
I3
sI785
I1
sI786
I1
sI787
I2
sI788
I1
sI789
I2
sI790
I2
sI791
I1
sI792
I1
sI793
I1
sI794
I2
sI795
I2
sI796
I2
sI797
I2
sI798
I1
sI799
I2
sI800
I2
sI801
I1
sI802
I1
sI803
I2
sI804
I1
sI805
I3
sI806
I2
sI807
I1
sI808
I3
sI809
I0
sI810
I1
sI811
I3
sI812
I1
sI813
I3
sI814
I1
sI815
I2
sI816
I3
sI817
I2
sI818
I2
sI819
I2
sI820
I3
sI821
I3
sI822
I1
sI823
I1
sI824
I3
sI825
I1
sI826
I1
sI827
I3
sI828
I1
sI829
I1
sI830
I3
sI831
I2
sI832
I1
sI833
I3
sI834
I1
sI835
I2
sI836
I3
sI837
I3
sI838
I1
sI839
I1
sI840
I0
sI841
I2
sI842
I1
sI843
I0
sI844
I1
sI845
I1
sI846
I2
sI847
I2
sI848
I0
sI849
I2
sI850
I2
sI851
I2
sI852
I2
sI853
I2
sI854
I2
sI855
I0
sI856
I2
sI857
I2
sI858
I1
sI859
I1
sI860
I1
sI861
I0
sI862
I0
sI863
I1
sI864
I2
sI865
I1
sI866
I3
sI867
I3
sI868
I2
sI869
I1
sI870
I3
sI871
I1
sI872
I1
sI873
I2
sI874
I3
sI875
I3
sI876
I1
sI877
I1
sI878
I1
sI879
I3
sI880
I1
sI881
I1
sI882
I2
sI883
I3
sI884
I3
sI885
I2
sI886
I3
sI887
I2
sI888
I1
sI889
I3
sI890
I2
sI891
I1
sI892
I1
sI893
I3
sI894
I3
sI895
I1
sI896
I1
sI897
I2
sI898
I3
sI899
I2
sI900
I1
sI901
I1
sI902
I2
sI903
I2
sI904
I2
sI905
I1
sI906
I2
sI907
I2
sI908
I2
sI909
I2
sI910
I1
sI911
I2
sI912
I1
sI913
I2
sI914
I1
sI915
I3
sI916
I3
sI917
I2
sI918
I1
sI919
I1
sI920
I2
sI921
I3
sI922
I1
sI923
I3
sI924
I2
sI925
I1
sI926
I2
sI927
I1
sI928
I1
sI929
I2
sI930
I3
sI931
I1
sI932
I3
sI933
I1
sI934
I1
sI935
I2
sI936
I3
sI937
I3
sI938
I1
sI939
I1
sI940
I2
sI941
I1
sI942
I1
sI943
I0
sI944
I1
sI945
I1
sI946
I0
sI947
I1
sI948
I3
sI949
I3
sI950
I1
sI951
I1
sI952
I1
sI953
I1
sI954
I3
sI955
I2
sI956
I1
sI957
I2
sI958
I2
sI959
I0
sI960
I2
sI961
I0
sI962
I0
sI963
I2
sI964
I0
sI965
I2
sI966
I2
sI967
I1
sI968
I2
sI969
I3
sI970
I1
sI971
I1
sI972
I1
sI973
I1
sI974
I2
sI975
I3
sI976
I0
sI977
I1
sI978
I1
sI979
I1
sI980
I1
sI981
I0
sI982
I1
sI983
I2
sI984
I1
sI985
I1
sI986
I1
sI987
I3
sI988
I3
sI989
I2
sI990
I1
sI991
I3
sI992
I1
sI993
I3
sI994
I2
sI995
I1
sI996
I0
sI997
I1
sI998
I1
sI999
I2
sI1000
I3
sI1001
I1
sI1002
I2
sI1003
I2
sI1004
I3
sI1005
I1
sI1006
I2
sI1007
I3
sI1008
I1
sI1009
I1
sI1010
I3
sI1011
I2
sI1012
I1
sI1013
I2
sI1014
I2
sI1015
I0
sI1016
I2
sI1017
I2
sI1018
I2
sI1019
I2
sI1020
I2
sI1021
I2
sI1022
I1
sI1023
I3
sI1024
I1
sI1025
I3
sI1026
I1
sI1027
I2
sI1028
I3
sI1029
I3
sI1030
I3
sI1031
I2
sI1032
I1
sI1033
I2
sI1034
I0
sI1035
I2
sI1036
I1
sI1037
I3
sI1038
I3
sI1039
I2
sI1040
I2
sI1041
I1
sI1042
I0
sI1043
I3
sI1044
I3
sI1045
I1
sI1046
I2
sI1047
I1
sI1048
I2
sI1049
I1
sI1050
I1
sI1051
I3
sI1052
I2
sI1053
I1
sI1054
I0
sI1055
I0
sI1056
I1
sI1057
I1
sI1058
I1
sI1059
I1
sI1060
I3
sI1061
I3
sI1062
I3
sI1063
I3
sI1064
I1
sI1065
I0
sI1066
I1
sI1067
I1
sI1068
I2
sI1069
I2
sI1070
I2
sI1071
I0
sI1072
I0
sI1073
I0
sI1074
I0
sI1075
I2
sI1076
I2
sI1077
I2
sI1078
I1
sI1079
I0
sI1080
I1
sI1081
I2
sI1082
I3
sI1083
I1
sI1084
I3
sI1085
I3
sI1086
I1
sI1087
I1
sI1088
I1
sI1089
I0
sI1090
I1
sI1091
I1
sI1092
I0
sI1093
I1
sI1094
I2
sI1095
I3
sI1096
I1
sI1097
I2
sI1098
I1
sI1099
I2
sI1100
I1
sI1101
I3
sI1102
I3
sI1103
I1
sI1104
I2
sI1105
I0
sI1106
I0
sI1107
I2
sI1108
I2
sI1109
I3
sI1110
I3
sI1111
I1
sI1112
I2
sI1113
I3
sI1114
I3
sI1115
I1
sI1116
I2
sI1117
I2
sI1118
I3
sI1119
I3
sI1120
I1
sI1121
I1
sI1122
I1
sI1123
I3
sI1124
I2
sI1125
I2
sI1126
I2
sI1127
I2
sI1128
I0
sI1129
I2
sI1130
I2
sI1131
I3
sI1132
I1
sI1133
I1
sI1134
I1
sI1135
I3
sI1136
I2
sI1137
I2
sI1138
I1
sI1139
I1
sI1140
I0
sI1141
I2
sI1142
I3
sI1143
I2
sI1144
I1
sI1145
I3
sI1146
I3
sI1147
I3
sI1148
I1
sI1149
I2
sI1150
I2
sI1151
I3
sI1152
I1
sI1153
I2
sI1154
I2
sI1155
I1
sI1156
I3
sI1157
I3
sI1158
I0
sI1159
I1
sI1160
I1
sI1161
I3
sI1162
I3
sI1163
I2
sI1164
I3
sI1165
I3
sI1166
I1
sI1167
I1
sI1168
I1
sI1169
I0
sI1170
I1
sI1171
I1
sI1172
I0
sI1173
I3
sI1174
I1
sI1175
I2
sI1176
I2
sI1177
I0
sI1178
I0
sI1179
I2
sI1180
I2
sI1181
I2
sI1182
I2
sI1183
I0
sI1184
I0
sI1185
I2
sI1186
I1
sI1187
I2
sI1188
I1
sI1189
I3
sI1190
I0
sI1191
I0
sI1192
I1
sI1193
I1
sI1194
I1
sI1195
I1
sI1196
I3
sI1197
I3
sI1198
I3
sI1199
I3
sI1200
I1
sI1201
I1
sI1202
I0
sI1203
I2
sI1204
I3
sI1205
I3
sI1206
I1
sI1207
I2
sI1208
I2
sI1209
I1
sI1210
I2
sI1211
I3
sI1212
I3
sI1213
I3
sI1214
I2
sI1215
I1
sI1216
I2
sI1217
I0
sI1218
I3
sI1219
I1
sI1220
I2
sI1221
I3
sI1222
I2
sI1223
I1
sI1224
I2
sI1225
I2
sI1226
I1
sI1227
I3
sI1228
I1
sI1229
I3
sI1230
I1
sI1231
I2
sI1232
I2
sI1233
I0
sI1234
I2
sI1235
I2
sI1236
I2
sI1237
I3
sI1238
I2
sI1239
I1
sI1240
I1
sI1241
I3
sI1242
I1
sI1243
I2
sI1244
I1
sI1245
I2
sI1246
I2
sI1247
I1
sI1248
I0
sI1249
I1
sI1250
I2
sI1251
I1
sI1252
I3
sI1253
I2
sI1254
I2
sI1255
I3
sI1256
I2
sI1257
I1
sI1258
I1
sI1259
I1
sI1260
I3
sI1261
I2
sI1262
I2
sI1263
I1
sI1264
I3
sI1265
I1
sI1266
I3
sI1267
I3
sI1268
I0
sI1269
I3
sI1270
I1
sI1271
I1
sI1272
I1
sI1273
I1
sI1274
I3
sI1275
I3
sI1276
I0
sI1277
I1
sI1278
I1
sI1279
I1
sI1280
I1
sI1281
I0
sI1282
I1
sI1283
I0
sI1284
I0
sI1285
I2
sI1286
I2
sI1287
I2
sI1288
I2
sI1289
I2
sI1290
I2
sI1291
I0
sI1292
I0
sI1293
I1
sI1294
I1
sI1295
I0
sI1296
I1
sI1297
I1
sI1298
I0
sI1299
I1
sI1300
I3
sI1301
I3
sI1302
I1
sI1303
I1
sI1304
I1
sI1305
I1
sI1306
I2
sI1307
I3
sI1308
I3
sI1309
I1
sI1310
I3
sI1311
I1
sI1312
I1
sI1313
I2
sI1314
I2
sI1315
I3
sI1316
I1
sI1317
I1
sI1318
I2
sI1319
I2
sI1320
I3
sI1321
I3
sI1322
I1
sI1323
I2
sI1324
I2
sI1325
I1
sI1326
I1
sI1327
I2
sI1328
I0
sI1329
I2
sI1330
I1
sI1331
I2
sI1332
I1
sI1333
I1
sI1334
I3
sI1335
I2
sI1336
I3
sI1337
I1
sI1338
I2
sI1339
I2
sI1340
I2
sI1341
I2
sI1342
I2
sI1343
I1
sI1344
I1
sI1345
I2
sI1346
I2
sI1347
I2
sI1348
I0
sI1349
I1
sI1350
I1
sI1351
I0
sI1352
I2
sI1353
I2
sI1354
I3
sI1355
I3
sI1356
I2
sI1357
I2
sI1358
I3
sI1359
I1
sI1360
I3
sI1361
I0
sI1362
I0
sI1363
I2
sI1364
I2
sI1365
I2
sI1366
I1
sI1367
I3
sI1368
I3
sI1369
I3
sI1370
I3
sI1371
I3
sI1372
I2
sI1373
I2
sI1374
I0
sI1375
I3
sI1376
I3
sI1377
I0
sI1378
I3
sI1379
I1
sI1380
I1
sI1381
I0
sI1382
I3
sI1383
I3
sI1384
I2
sI1385
I2
sI1386
I3
sI1387
I1
sI1388
I1
sI1389
I1
sI1390
I0
sI1391
I2
sI1392
I2
sI1393
I0
sI1394
I2
sI1395
I0
sI1396
I0
sI1397
I2
sI1398
I2
sI1399
I0
sI1400
I2
sI1401
I0
sI1402
I1
sI1403
I1
sI1404
I1
sI1405
I3
sI1406
I2
sI1407
I3
sI1408
I3
sI1409
I0
sI1410
I1
sI1411
I2
sI1412
I3
sI1413
I1
sI1414
I3
sI1415
I0
sI1416
I0
sI1417
I3
sI1418
I2
sI1419
I2
sI1420
I3
sI1421
I3
sI1422
I3
sI1423
I3
sI1424
I2
sI1425
I0
sI1426
I3
sI1427
I1
sI1428
I2
sI1429
I2
sI1430
I3
sI1431
I1
sI1432
I0
sI1433
I3
sI1434
I3
sI1435
I2
sI1436
I3
sI1437
I2
sI1438
I2
sI1439
I3
sI1440
I0
sI1441
I1
sI1442
I1
sI1443
I0
sI1444
I2
sI1445
I2
sI1446
I1
sI1447
I2
sI1448
I2
sI1449
I1
sI1450
I2
sI1451
I2
sI1452
I1
sI1453
I1
sI1454
I2
sI1455
I2
sI1456
I1
sI1457
I2
sI1458
I2
sI1459
I3
sI1460
I1
sI1461
I2
sI1462
I0
sI1463
I3
sI1464
I0
sI1465
I1
sI1466
I2
sI1467
I1
sI1468
I3
sI1469
I3
sI1470
I3
sI1471
I2
sI1472
I3
sI1473
I2
sI1474
I1
sI1475
I0
sI1476
I0
sI1477
I1
sI1478
I2
sI1479
I3
sI1480
I3
sI1481
I3
sI1482
I2
sI1483
I2
sI1484
I3
sI1485
I3
sI1486
I3
sI1487
I2
sI1488
I0
sI1489
I3
sI1490
I3
sI1491
I1
sI1492
I0
sI1493
I3
sI1494
I1
sI1495
I1
sI1496
I1
sI1497
I3
sI1498
I3
sI1499
I2
sI1500
I0
sI1501
I2
sI1502
I0
sI1503
I0
sI1504
I2
sI1505
I0
sI1506
I2
sI1507
I2
sI1508
I0
sI1509
I2
sI1510
I2
sI1511
I0
sI1512
I0
sI1513
I2
sI1514
I3
sI1515
I3
sI1516
I1
sI1517
I1
sI1518
I1
sI1519
I3
sI1520
I3
sI1521
I0
sI1522
I1
sI1523
I0
sI1524
I3
sI1525
I2
sI1526
I3
sI1527
I3
sI1528
I3
sI1529
I2
sI1530
I2
sI1531
I3
sI1532
I3
sI1533
I3
sI1534
I0
sI1535
I3
sI1536
I1
sI1537
I1
sI1538
I2
sI1539
I0
sI1540
I3
sI1541
I3
sI1542
I2
sI1543
I3
sI1544
I1
sI1545
I2
sI1546
I3
sI1547
I1
sI1548
I0
sI1549
I0
sI1550
I2
sI1551
I1
sI1552
I3
sI1553
I3
sI1554
I2
sI1555
I2
sI1556
I2
sI1557
I1
sI1558
I1
sI1559
I2
sI1560
I2
sI1561
I1
sI1562
I2
sI1563
I1
sI1564
I1
sI1565
I2
sI1566
I2
sI1567
I1
sI1568
I1
sI1569
I0
sI1570
I2
sI1571
I3
sI1572
I1
sI1573
I3
sI1574
I2
sI1575
I2
sI1576
I0
sI1577
I2
sI1578
I1
sI1579
I1
sI1580
I3
sI1581
I0
sI1582
I2
sI1583
I2
sI1584
I3
sI1585
I1
sI1586
I2
sI1587
I3
sI1588
I3
sI1589
I2
sI1590
I2
sI1591
I3
sI1592
I2
sI1593
I3
sI1594
I2
sI1595
I3
sI1596
I3
sI1597
I3
sI1598
I3
sI1599
I1
sI1600
I1
sI1601
I1
sI1602
I3
sI1603
I3
sI1604
I3
sI1605
I0
sI1606
I1
sI1607
I0
sI1608
I3
sI1609
I0
sI1610
I0
sI1611
I2
sI1612
I0
sI1613
I2
sI1614
I2
sI1615
I0
sI1616
I0
sI1617
I2
sI1618
I0
sI1619
I0
sI1620
I0
sI1621
I2
sI1622
I2
sI1623
I0
sI1624
I0
sI1625
I0
sI1626
I3
sI1627
I3
sI1628
I1
sI1629
I0
sI1630
I3
sI1631
I3
sI1632
I1
sI1633
I1
sI1634
I1
sI1635
I3
sI1636
I3
sI1637
I3
sI1638
I3
sI1639
I2
sI1640
I3
sI1641
I2
sI1642
I3
sI1643
I2
sI1644
I2
sI1645
I3
sI1646
I2
sI1647
I1
sI1648
I3
sI1649
I2
sI1650
I3
sI1651
I2
sI1652
I3
sI1653
I1
sI1654
I0
sI1655
I0
sI1656
I1
sI1657
I3
sI1658
I2
sI1659
I2
sI1660
I1
sI1661
I3
sI1662
I0
sI1663
I2
sI1664
I3
sI1665
I0
sI1666
I1
sI1667
I2
sI1668
I1
sI1669
I1
sI1670
I2
sI1671
I2
sI1672
I1
sI1673
I2
sI1674
I1
sI1675
I2
sI1676
I2
sI1677
I1
sI1678
I0
sI1679
I1
sI1680
I1
sI1681
I1
sI1682
I2
sI1683
I2
sI1684
I2
sI1685
I0
sI1686
I1
sI1687
I2
sI1688
I3
sI1689
I3
sI1690
I2
sI1691
I1
sI1692
I0
sI1693
I3
sI1694
I2
sI1695
I3
sI1696
I2
sI1697
I3
sI1698
I2
sI1699
I2
sI1700
I0
sI1701
I3
sI1702
I2
sI1703
I2
sI1704
I2
sI1705
I3
sI1706
I2
sI1707
I1
sI1708
I3
sI1709
I3
sI1710
I3
sI1711
I1
sI1712
I2
sI1713
I0
sI1714
I1
sI1715
I3
sI1716
I3
sI1717
I3
sI1718
I1
sI1719
I0
sI1720
I0
sI1721
I3
sI1722
I0
sI1723
I0
sI1724
I1
sI1725
I0
sI1726
I2
sI1727
I2
sI1728
I0
sI1729
I2
sI1730
I0
sI1731
I0
sI1732
I2
sI1733
I1
sI1734
I0
sI1735
I0
sI1736
I0
sI1737
I3
sI1738
I3
sI1739
I0
sI1740
I1
sI1741
I3
sI1742
I1
sI1743
I0
sI1744
I2
sI1745
I1
sI1746
I3
sI1747
I3
sI1748
I3
sI1749
I3
sI1750
I1
sI1751
I2
sI1752
I3
sI1753
I2
sI1754
I2
sI1755
I2
sI1756
I2
sI1757
I2
sI1758
I3
sI1759
I2
sI1760
I0
sI1761
I2
sI1762
I3
sI1763
I3
sI1764
I2
sI1765
I1
sI1766
I2
sI1767
I0
sI1768
I0
sI1769
I2
sI1770
I3
sI1771
I3
sI1772
I2
sI1773
I1
sI1774
I2
sI1775
I2
sI1776
I1
sI1777
I1
sI1778
I1
sI1779
I0
sI1780
I2
sI1781
I1
sI1782
I1
sI1783
I2
sI1784
I2
s.