(dp0
I0
S'/Users/zhenzhenweng/Downloads/images/000001090.png'
p1
sI1
S'/Users/zhenzhenweng/Downloads/images/000001084.png'
p2
sI2
S'/Users/zhenzhenweng/Downloads/images/000001053.png'
p3
sI3
S'/Users/zhenzhenweng/Downloads/images/000003122.png'
p4
sI4
S'/Users/zhenzhenweng/Downloads/images/000003136.png'
p5
sI5
S'/Users/zhenzhenweng/Downloads/images/000001047.png'
p6
sI6
S'/Users/zhenzhenweng/Downloads/images/000000832.png'
p7
sI7
S'/Users/zhenzhenweng/Downloads/images/000005792.png'
p8
sI8
S'/Users/zhenzhenweng/Downloads/images/000001292.png'
p9
sI9
S'/Users/zhenzhenweng/Downloads/images/000001286.png'
p10
sI10
S'/Users/zhenzhenweng/Downloads/images/000005786.png'
p11
sI11
S'/Users/zhenzhenweng/Downloads/images/000004498.png'
p12
sI12
S'/Users/zhenzhenweng/Downloads/images/000000826.png'
p13
sI13
S'/Users/zhenzhenweng/Downloads/images/000003320.png'
p14
sI14
S'/Users/zhenzhenweng/Downloads/images/000005751.png'
p15
sI15
S'/Users/zhenzhenweng/Downloads/images/000000629.png'
p16
sI16
S'/Users/zhenzhenweng/Downloads/images/000001251.png'
p17
sI17
S'/Users/zhenzhenweng/Downloads/images/000004329.png'
p18
sI18
S'/Users/zhenzhenweng/Downloads/images/000001245.png'
p19
sI19
S'/Users/zhenzhenweng/Downloads/images/000003334.png'
p20
sI20
S'/Users/zhenzhenweng/Downloads/images/000005745.png'
p21
sI21
S'/Users/zhenzhenweng/Downloads/images/000000615.png'
p22
sI22
S'/Users/zhenzhenweng/Downloads/images/000004473.png'
p23
sI23
S'/Users/zhenzhenweng/Downloads/images/000001279.png'
p24
sI24
S'/Users/zhenzhenweng/Downloads/images/000003308.png'
p25
sI25
S'/Users/zhenzhenweng/Downloads/images/000004467.png'
p26
sI26
S'/Users/zhenzhenweng/Downloads/images/000005779.png'
p27
sI27
S'/Users/zhenzhenweng/Downloads/images/000000601.png'
p28
sI28
S'/Users/zhenzhenweng/Downloads/images/000000946.png'
p29
sI29
S'/Users/zhenzhenweng/Downloads/images/000003297.png'
p30
sI30
S'/Users/zhenzhenweng/Downloads/images/000003283.png'
p31
sI31
S'/Users/zhenzhenweng/Downloads/images/000000952.png'
p32
sI32
S'/Users/zhenzhenweng/Downloads/images/000005802.png'
p33
sI33
S'/Users/zhenzhenweng/Downloads/images/000005816.png'
p34
sI34
S'/Users/zhenzhenweng/Downloads/images/000003254.png'
p35
sI35
S'/Users/zhenzhenweng/Downloads/images/000000985.png'
p36
sI36
S'/Users/zhenzhenweng/Downloads/images/000001325.png'
p37
sI37
S'/Users/zhenzhenweng/Downloads/images/000001331.png'
p38
sI38
S'/Users/zhenzhenweng/Downloads/images/000000749.png'
p39
sI39
S'/Users/zhenzhenweng/Downloads/images/000000991.png'
p40
sI40
S'/Users/zhenzhenweng/Downloads/images/000006338.png'
p41
sI41
S'/Users/zhenzhenweng/Downloads/images/000003240.png'
p42
sI42
S'/Users/zhenzhenweng/Downloads/images/000000761.png'
p43
sI43
S'/Users/zhenzhenweng/Downloads/images/000006310.png'
p44
sI44
S'/Users/zhenzhenweng/Downloads/images/000004507.png'
p45
sI45
S'/Users/zhenzhenweng/Downloads/images/000003268.png'
p46
sI46
S'/Users/zhenzhenweng/Downloads/images/000001319.png'
p47
sI47
S'/Users/zhenzhenweng/Downloads/images/000004513.png'
p48
sI48
S'/Users/zhenzhenweng/Downloads/images/000000775.png'
p49
sI49
S'/Users/zhenzhenweng/Downloads/images/000006304.png'
p50
sI50
S'/Users/zhenzhenweng/Downloads/images/000003095.png'
p51
sI51
S'/Users/zhenzhenweng/Downloads/images/000000588.png'
p52
sI52
S'/Users/zhenzhenweng/Downloads/images/000003081.png'
p53
sI53
S'/Users/zhenzhenweng/Downloads/images/000000239.png'
p54
sI54
S'/Users/zhenzhenweng/Downloads/images/000001127.png'
p55
sI55
S'/Users/zhenzhenweng/Downloads/images/000001133.png'
p56
sI56
S'/Users/zhenzhenweng/Downloads/images/000000563.png'
p57
sI57
S'/Users/zhenzhenweng/Downloads/images/000000577.png'
p58
sI58
S'/Users/zhenzhenweng/Downloads/images/000000576.png'
p59
sI59
S'/Users/zhenzhenweng/Downloads/images/000000562.png'
p60
sI60
S'/Users/zhenzhenweng/Downloads/images/000001132.png'
p61
sI61
S'/Users/zhenzhenweng/Downloads/images/000001126.png'
p62
sI62
S'/Users/zhenzhenweng/Downloads/images/000000238.png'
p63
sI63
S'/Users/zhenzhenweng/Downloads/images/000003080.png'
p64
sI64
S'/Users/zhenzhenweng/Downloads/images/000000589.png'
p65
sI65
S'/Users/zhenzhenweng/Downloads/images/000003094.png'
p66
sI66
S'/Users/zhenzhenweng/Downloads/images/000006305.png'
p67
sI67
S'/Users/zhenzhenweng/Downloads/images/000000774.png'
p68
sI68
S'/Users/zhenzhenweng/Downloads/images/000004512.png'
p69
sI69
S'/Users/zhenzhenweng/Downloads/images/000003269.png'
p70
sI70
S'/Users/zhenzhenweng/Downloads/images/000004506.png'
p71
sI71
S'/Users/zhenzhenweng/Downloads/images/000006311.png'
p72
sI72
S'/Users/zhenzhenweng/Downloads/images/000000760.png'
p73
sI73
S'/Users/zhenzhenweng/Downloads/images/000001318.png'
p74
sI74
S'/Users/zhenzhenweng/Downloads/images/000001330.png'
p75
sI75
S'/Users/zhenzhenweng/Downloads/images/000003241.png'
p76
sI76
S'/Users/zhenzhenweng/Downloads/images/000006339.png'
p77
sI77
S'/Users/zhenzhenweng/Downloads/images/000000990.png'
p78
sI78
S'/Users/zhenzhenweng/Downloads/images/000000748.png'
p79
sI79
S'/Users/zhenzhenweng/Downloads/images/000000984.png'
p80
sI80
S'/Users/zhenzhenweng/Downloads/images/000003255.png'
p81
sI81
S'/Users/zhenzhenweng/Downloads/images/000001324.png'
p82
sI82
S'/Users/zhenzhenweng/Downloads/images/000005817.png'
p83
sI83
S'/Users/zhenzhenweng/Downloads/images/000005803.png'
p84
sI84
S'/Users/zhenzhenweng/Downloads/images/000000953.png'
p85
sI85
S'/Users/zhenzhenweng/Downloads/images/000003282.png'
p86
sI86
S'/Users/zhenzhenweng/Downloads/images/000003296.png'
p87
sI87
S'/Users/zhenzhenweng/Downloads/images/000000947.png'
p88
sI88
S'/Users/zhenzhenweng/Downloads/images/000001278.png'
p89
sI89
S'/Users/zhenzhenweng/Downloads/images/000000600.png'
p90
sI90
S'/Users/zhenzhenweng/Downloads/images/000005778.png'
p91
sI91
S'/Users/zhenzhenweng/Downloads/images/000004466.png'
p92
sI92
S'/Users/zhenzhenweng/Downloads/images/000003309.png'
p93
sI93
S'/Users/zhenzhenweng/Downloads/images/000004472.png'
p94
sI94
S'/Users/zhenzhenweng/Downloads/images/000000614.png'
p95
sI95
S'/Users/zhenzhenweng/Downloads/images/000001244.png'
p96
sI96
S'/Users/zhenzhenweng/Downloads/images/000005744.png'
p97
sI97
S'/Users/zhenzhenweng/Downloads/images/000003335.png'
p98
sI98
S'/Users/zhenzhenweng/Downloads/images/000000628.png'
p99
sI99
S'/Users/zhenzhenweng/Downloads/images/000005750.png'
p100
sI100
S'/Users/zhenzhenweng/Downloads/images/000003321.png'
p101
sI101
S'/Users/zhenzhenweng/Downloads/images/000004328.png'
p102
sI102
S'/Users/zhenzhenweng/Downloads/images/000001250.png'
p103
sI103
S'/Users/zhenzhenweng/Downloads/images/000001287.png'
p104
sI104
S'/Users/zhenzhenweng/Downloads/images/000000827.png'
p105
sI105
S'/Users/zhenzhenweng/Downloads/images/000004499.png'
p106
sI106
S'/Users/zhenzhenweng/Downloads/images/000005787.png'
p107
sI107
S'/Users/zhenzhenweng/Downloads/images/000005793.png'
p108
sI108
S'/Users/zhenzhenweng/Downloads/images/000000833.png'
p109
sI109
S'/Users/zhenzhenweng/Downloads/images/000001293.png'
p110
sI110
S'/Users/zhenzhenweng/Downloads/images/000003137.png'
p111
sI111
S'/Users/zhenzhenweng/Downloads/images/000001046.png'
p112
sI112
S'/Users/zhenzhenweng/Downloads/images/000001052.png'
p113
sI113
S'/Users/zhenzhenweng/Downloads/images/000003123.png'
p114
sI114
S'/Users/zhenzhenweng/Downloads/images/000001085.png'
p115
sI115
S'/Users/zhenzhenweng/Downloads/images/000001091.png'
p116
sI116
S'/Users/zhenzhenweng/Downloads/images/000001087.png'
p117
sI117
S'/Users/zhenzhenweng/Downloads/images/000001093.png'
p118
sI118
S'/Users/zhenzhenweng/Downloads/images/000001044.png'
p119
sI119
S'/Users/zhenzhenweng/Downloads/images/000003135.png'
p120
sI120
S'/Users/zhenzhenweng/Downloads/images/000003121.png'
p121
sI121
S'/Users/zhenzhenweng/Downloads/images/000001050.png'
p122
sI122
S'/Users/zhenzhenweng/Downloads/images/000001078.png'
p123
sI123
S'/Users/zhenzhenweng/Downloads/images/000003109.png'
p124
sI124
S'/Users/zhenzhenweng/Downloads/images/000005785.png'
p125
sI125
S'/Users/zhenzhenweng/Downloads/images/000000825.png'
p126
sI126
S'/Users/zhenzhenweng/Downloads/images/000001285.png'
p127
sI127
S'/Users/zhenzhenweng/Downloads/images/000001291.png'
p128
sI128
S'/Users/zhenzhenweng/Downloads/images/000006298.png'
p129
sI129
S'/Users/zhenzhenweng/Downloads/images/000000831.png'
p130
sI130
S'/Users/zhenzhenweng/Downloads/images/000005791.png'
p131
sI131
S'/Users/zhenzhenweng/Downloads/images/000000819.png'
p132
sI132
S'/Users/zhenzhenweng/Downloads/images/000003337.png'
p133
sI133
S'/Users/zhenzhenweng/Downloads/images/000004458.png'
p134
sI134
S'/Users/zhenzhenweng/Downloads/images/000005746.png'
p135
sI135
S'/Users/zhenzhenweng/Downloads/images/000001246.png'
p136
sI136
S'/Users/zhenzhenweng/Downloads/images/000001252.png'
p137
sI137
S'/Users/zhenzhenweng/Downloads/images/000003323.png'
p138
sI138
S'/Users/zhenzhenweng/Downloads/images/000005752.png'
p139
sI139
S'/Users/zhenzhenweng/Downloads/images/000004464.png'
p140
sI140
S'/Users/zhenzhenweng/Downloads/images/000000602.png'
p141
sI141
S'/Users/zhenzhenweng/Downloads/images/000000616.png'
p142
sI142
S'/Users/zhenzhenweng/Downloads/images/000004470.png'
p143
sI143
S'/Users/zhenzhenweng/Downloads/images/000003280.png'
p144
sI144
S'/Users/zhenzhenweng/Downloads/images/000005829.png'
p145
sI145
S'/Users/zhenzhenweng/Downloads/images/000000951.png'
p146
sI146
S'/Users/zhenzhenweng/Downloads/images/000000789.png'
p147
sI147
S'/Users/zhenzhenweng/Downloads/images/000000945.png'
p148
sI148
S'/Users/zhenzhenweng/Downloads/images/000003294.png'
p149
sI149
S'/Users/zhenzhenweng/Downloads/images/000005815.png'
p150
sI150
S'/Users/zhenzhenweng/Downloads/images/000005801.png'
p151
sI151
S'/Users/zhenzhenweng/Downloads/images/000000979.png'
p152
sI152
S'/Users/zhenzhenweng/Downloads/images/000000992.png'
p153
sI153
S'/Users/zhenzhenweng/Downloads/images/000003243.png'
p154
sI154
S'/Users/zhenzhenweng/Downloads/images/000001332.png'
p155
sI155
S'/Users/zhenzhenweng/Downloads/images/000001326.png'
p156
sI156
S'/Users/zhenzhenweng/Downloads/images/000004538.png'
p157
sI157
S'/Users/zhenzhenweng/Downloads/images/000003257.png'
p158
sI158
S'/Users/zhenzhenweng/Downloads/images/000000986.png'
p159
sI159
S'/Users/zhenzhenweng/Downloads/images/000004510.png'
p160
sI160
S'/Users/zhenzhenweng/Downloads/images/000000776.png'
p161
sI161
S'/Users/zhenzhenweng/Downloads/images/000006307.png'
p162
sI162
S'/Users/zhenzhenweng/Downloads/images/000000762.png'
p163
sI163
S'/Users/zhenzhenweng/Downloads/images/000006313.png'
p164
sI164
S'/Users/zhenzhenweng/Downloads/images/000004504.png'
p165
sI165
S'/Users/zhenzhenweng/Downloads/images/000003082.png'
p166
sI166
S'/Users/zhenzhenweng/Downloads/images/000003096.png'
p167
sI167
S'/Users/zhenzhenweng/Downloads/images/000001130.png'
p168
sI168
S'/Users/zhenzhenweng/Downloads/images/000001124.png'
p169
sI169
S'/Users/zhenzhenweng/Downloads/images/000000574.png'
p170
sI170
S'/Users/zhenzhenweng/Downloads/images/000003069.png'
p171
sI171
S'/Users/zhenzhenweng/Downloads/images/000000560.png'
p172
sI172
S'/Users/zhenzhenweng/Downloads/images/000001118.png'
p173
sI173
S'/Users/zhenzhenweng/Downloads/images/000000561.png'
p174
sI174
S'/Users/zhenzhenweng/Downloads/images/000003068.png'
p175
sI175
S'/Users/zhenzhenweng/Downloads/images/000001119.png'
p176
sI176
S'/Users/zhenzhenweng/Downloads/images/000000575.png'
p177
sI177
S'/Users/zhenzhenweng/Downloads/images/000001125.png'
p178
sI178
S'/Users/zhenzhenweng/Downloads/images/000001131.png'
p179
sI179
S'/Users/zhenzhenweng/Downloads/images/000003097.png'
p180
sI180
S'/Users/zhenzhenweng/Downloads/images/000003083.png'
p181
sI181
S'/Users/zhenzhenweng/Downloads/images/000004505.png'
p182
sI182
S'/Users/zhenzhenweng/Downloads/images/000006312.png'
p183
sI183
S'/Users/zhenzhenweng/Downloads/images/000000763.png'
p184
sI184
S'/Users/zhenzhenweng/Downloads/images/000006306.png'
p185
sI185
S'/Users/zhenzhenweng/Downloads/images/000000777.png'
p186
sI186
S'/Users/zhenzhenweng/Downloads/images/000004511.png'
p187
sI187
S'/Users/zhenzhenweng/Downloads/images/000001327.png'
p188
sI188
S'/Users/zhenzhenweng/Downloads/images/000000987.png'
p189
sI189
S'/Users/zhenzhenweng/Downloads/images/000003256.png'
p190
sI190
S'/Users/zhenzhenweng/Downloads/images/000004539.png'
p191
sI191
S'/Users/zhenzhenweng/Downloads/images/000003242.png'
p192
sI192
S'/Users/zhenzhenweng/Downloads/images/000000993.png'
p193
sI193
S'/Users/zhenzhenweng/Downloads/images/000001333.png'
p194
sI194
S'/Users/zhenzhenweng/Downloads/images/000000978.png'
p195
sI195
S'/Users/zhenzhenweng/Downloads/images/000005800.png'
p196
sI196
S'/Users/zhenzhenweng/Downloads/images/000005814.png'
p197
sI197
S'/Users/zhenzhenweng/Downloads/images/000003295.png'
p198
sI198
S'/Users/zhenzhenweng/Downloads/images/000000944.png'
p199
sI199
S'/Users/zhenzhenweng/Downloads/images/000000788.png'
p200
sI200
S'/Users/zhenzhenweng/Downloads/images/000000950.png'
p201
sI201
S'/Users/zhenzhenweng/Downloads/images/000005828.png'
p202
sI202
S'/Users/zhenzhenweng/Downloads/images/000003281.png'
p203
sI203
S'/Users/zhenzhenweng/Downloads/images/000004317.png'
p204
sI204
S'/Users/zhenzhenweng/Downloads/images/000004471.png'
p205
sI205
S'/Users/zhenzhenweng/Downloads/images/000000617.png'
p206
sI206
S'/Users/zhenzhenweng/Downloads/images/000000603.png'
p207
sI207
S'/Users/zhenzhenweng/Downloads/images/000004465.png'
p208
sI208
S'/Users/zhenzhenweng/Downloads/images/000001253.png'
p209
sI209
S'/Users/zhenzhenweng/Downloads/images/000005753.png'
p210
sI210
S'/Users/zhenzhenweng/Downloads/images/000003322.png'
p211
sI211
S'/Users/zhenzhenweng/Downloads/images/000005747.png'
p212
sI212
S'/Users/zhenzhenweng/Downloads/images/000004459.png'
p213
sI213
S'/Users/zhenzhenweng/Downloads/images/000003336.png'
p214
sI214
S'/Users/zhenzhenweng/Downloads/images/000001247.png'
p215
sI215
S'/Users/zhenzhenweng/Downloads/images/000000818.png'
p216
sI216
S'/Users/zhenzhenweng/Downloads/images/000001290.png'
p217
sI217
S'/Users/zhenzhenweng/Downloads/images/000005790.png'
p218
sI218
S'/Users/zhenzhenweng/Downloads/images/000000830.png'
p219
sI219
S'/Users/zhenzhenweng/Downloads/images/000006299.png'
p220
sI220
S'/Users/zhenzhenweng/Downloads/images/000000824.png'
p221
sI221
S'/Users/zhenzhenweng/Downloads/images/000005784.png'
p222
sI222
S'/Users/zhenzhenweng/Downloads/images/000001284.png'
p223
sI223
S'/Users/zhenzhenweng/Downloads/images/000001079.png'
p224
sI224
S'/Users/zhenzhenweng/Downloads/images/000003108.png'
p225
sI225
S'/Users/zhenzhenweng/Downloads/images/000003120.png'
p226
sI226
S'/Users/zhenzhenweng/Downloads/images/000001051.png'
p227
sI227
S'/Users/zhenzhenweng/Downloads/images/000001045.png'
p228
sI228
S'/Users/zhenzhenweng/Downloads/images/000003134.png'
p229
sI229
S'/Users/zhenzhenweng/Downloads/images/000001092.png'
p230
sI230
S'/Users/zhenzhenweng/Downloads/images/000001086.png'
p231
sI231
S'/Users/zhenzhenweng/Downloads/images/000001082.png'
p232
sI232
S'/Users/zhenzhenweng/Downloads/images/000001096.png'
p233
sI233
S'/Users/zhenzhenweng/Downloads/images/000001069.png'
p234
sI234
S'/Users/zhenzhenweng/Downloads/images/000003118.png'
p235
sI235
S'/Users/zhenzhenweng/Downloads/images/000003130.png'
p236
sI236
S'/Users/zhenzhenweng/Downloads/images/000001041.png'
p237
sI237
S'/Users/zhenzhenweng/Downloads/images/000001055.png'
p238
sI238
S'/Users/zhenzhenweng/Downloads/images/000003124.png'
p239
sI239
S'/Users/zhenzhenweng/Downloads/images/000000808.png'
p240
sI240
S'/Users/zhenzhenweng/Downloads/images/000001280.png'
p241
sI241
S'/Users/zhenzhenweng/Downloads/images/000005780.png'
p242
sI242
S'/Users/zhenzhenweng/Downloads/images/000006289.png'
p243
sI243
S'/Users/zhenzhenweng/Downloads/images/000000820.png'
p244
sI244
S'/Users/zhenzhenweng/Downloads/images/000000834.png'
p245
sI245
S'/Users/zhenzhenweng/Downloads/images/000005794.png'
p246
sI246
S'/Users/zhenzhenweng/Downloads/images/000001294.png'
p247
sI247
S'/Users/zhenzhenweng/Downloads/images/000004461.png'
p248
sI248
S'/Users/zhenzhenweng/Downloads/images/000000607.png'
p249
sI249
S'/Users/zhenzhenweng/Downloads/images/000000613.png'
p250
sI250
S'/Users/zhenzhenweng/Downloads/images/000004475.png'
p251
sI251
S'/Users/zhenzhenweng/Downloads/images/000001243.png'
p252
sI252
S'/Users/zhenzhenweng/Downloads/images/000003332.png'
p253
sI253
S'/Users/zhenzhenweng/Downloads/images/000005743.png'
p254
sI254
S'/Users/zhenzhenweng/Downloads/images/000004449.png'
p255
sI255
S'/Users/zhenzhenweng/Downloads/images/000003326.png'
p256
sI256
S'/Users/zhenzhenweng/Downloads/images/000005757.png'
p257
sI257
S'/Users/zhenzhenweng/Downloads/images/000001257.png'
p258
sI258
S'/Users/zhenzhenweng/Downloads/images/000000968.png'
p259
sI259
S'/Users/zhenzhenweng/Downloads/images/000005810.png'
p260
sI260
S'/Users/zhenzhenweng/Downloads/images/000005804.png'
p261
sI261
S'/Users/zhenzhenweng/Downloads/images/000003285.png'
p262
sI262
S'/Users/zhenzhenweng/Downloads/images/000000954.png'
p263
sI263
S'/Users/zhenzhenweng/Downloads/images/000000940.png'
p264
sI264
S'/Users/zhenzhenweng/Downloads/images/000000798.png'
p265
sI265
S'/Users/zhenzhenweng/Downloads/images/000003291.png'
p266
sI266
S'/Users/zhenzhenweng/Downloads/images/000005838.png'
p267
sI267
S'/Users/zhenzhenweng/Downloads/images/000004515.png'
p268
sI268
S'/Users/zhenzhenweng/Downloads/images/000000773.png'
p269
sI269
S'/Users/zhenzhenweng/Downloads/images/000006302.png'
p270
sI270
S'/Users/zhenzhenweng/Downloads/images/000000767.png'
p271
sI271
S'/Users/zhenzhenweng/Downloads/images/000006316.png'
p272
sI272
S'/Users/zhenzhenweng/Downloads/images/000004501.png'
p273
sI273
S'/Users/zhenzhenweng/Downloads/images/000001337.png'
p274
sI274
S'/Users/zhenzhenweng/Downloads/images/000000997.png'
p275
sI275
S'/Users/zhenzhenweng/Downloads/images/000003246.png'
p276
sI276
S'/Users/zhenzhenweng/Downloads/images/000004529.png'
p277
sI277
S'/Users/zhenzhenweng/Downloads/images/000003252.png'
p278
sI278
S'/Users/zhenzhenweng/Downloads/images/000000983.png'
p279
sI279
S'/Users/zhenzhenweng/Downloads/images/000001323.png'
p280
sI280
S'/Users/zhenzhenweng/Downloads/images/000003087.png'
p281
sI281
S'/Users/zhenzhenweng/Downloads/images/000003093.png'
p282
sI282
S'/Users/zhenzhenweng/Downloads/images/000000571.png'
p283
sI283
S'/Users/zhenzhenweng/Downloads/images/000003078.png'
p284
sI284
S'/Users/zhenzhenweng/Downloads/images/000001109.png'
p285
sI285
S'/Users/zhenzhenweng/Downloads/images/000000565.png'
p286
sI286
S'/Users/zhenzhenweng/Downloads/images/000001135.png'
p287
sI287
S'/Users/zhenzhenweng/Downloads/images/000001121.png'
p288
sI288
S'/Users/zhenzhenweng/Downloads/images/000000559.png'
p289
sI289
S'/Users/zhenzhenweng/Downloads/images/000001120.png'
p290
sI290
S'/Users/zhenzhenweng/Downloads/images/000000558.png'
p291
sI291
S'/Users/zhenzhenweng/Downloads/images/000001134.png'
p292
sI292
S'/Users/zhenzhenweng/Downloads/images/000000564.png'
p293
sI293
S'/Users/zhenzhenweng/Downloads/images/000003079.png'
p294
sI294
S'/Users/zhenzhenweng/Downloads/images/000000570.png'
p295
sI295
S'/Users/zhenzhenweng/Downloads/images/000001108.png'
p296
sI296
S'/Users/zhenzhenweng/Downloads/images/000003092.png'
p297
sI297
S'/Users/zhenzhenweng/Downloads/images/000003086.png'
p298
sI298
S'/Users/zhenzhenweng/Downloads/images/000000982.png'
p299
sI299
S'/Users/zhenzhenweng/Downloads/images/000003253.png'
p300
sI300
S'/Users/zhenzhenweng/Downloads/images/000001322.png'
p301
sI301
S'/Users/zhenzhenweng/Downloads/images/000001336.png'
p302
sI302
S'/Users/zhenzhenweng/Downloads/images/000004528.png'
p303
sI303
S'/Users/zhenzhenweng/Downloads/images/000003247.png'
p304
sI304
S'/Users/zhenzhenweng/Downloads/images/000000996.png'
p305
sI305
S'/Users/zhenzhenweng/Downloads/images/000004500.png'
p306
sI306
S'/Users/zhenzhenweng/Downloads/images/000006317.png'
p307
sI307
S'/Users/zhenzhenweng/Downloads/images/000000766.png'
p308
sI308
S'/Users/zhenzhenweng/Downloads/images/000006303.png'
p309
sI309
S'/Users/zhenzhenweng/Downloads/images/000000772.png'
p310
sI310
S'/Users/zhenzhenweng/Downloads/images/000004514.png'
p311
sI311
S'/Users/zhenzhenweng/Downloads/images/000005839.png'
p312
sI312
S'/Users/zhenzhenweng/Downloads/images/000003290.png'
p313
sI313
S'/Users/zhenzhenweng/Downloads/images/000000799.png'
p314
sI314
S'/Users/zhenzhenweng/Downloads/images/000000941.png'
p315
sI315
S'/Users/zhenzhenweng/Downloads/images/000000955.png'
p316
sI316
S'/Users/zhenzhenweng/Downloads/images/000003284.png'
p317
sI317
S'/Users/zhenzhenweng/Downloads/images/000005805.png'
p318
sI318
S'/Users/zhenzhenweng/Downloads/images/000005811.png'
p319
sI319
S'/Users/zhenzhenweng/Downloads/images/000000969.png'
p320
sI320
S'/Users/zhenzhenweng/Downloads/images/000005756.png'
p321
sI321
S'/Users/zhenzhenweng/Downloads/images/000003327.png'
p322
sI322
S'/Users/zhenzhenweng/Downloads/images/000004448.png'
p323
sI323
S'/Users/zhenzhenweng/Downloads/images/000001256.png'
p324
sI324
S'/Users/zhenzhenweng/Downloads/images/000001242.png'
p325
sI325
S'/Users/zhenzhenweng/Downloads/images/000005742.png'
p326
sI326
S'/Users/zhenzhenweng/Downloads/images/000003333.png'
p327
sI327
S'/Users/zhenzhenweng/Downloads/images/000004474.png'
p328
sI328
S'/Users/zhenzhenweng/Downloads/images/000000612.png'
p329
sI329
S'/Users/zhenzhenweng/Downloads/images/000000606.png'
p330
sI330
S'/Users/zhenzhenweng/Downloads/images/000004460.png'
p331
sI331
S'/Users/zhenzhenweng/Downloads/images/000005795.png'
p332
sI332
S'/Users/zhenzhenweng/Downloads/images/000000835.png'
p333
sI333
S'/Users/zhenzhenweng/Downloads/images/000001295.png'
p334
sI334
S'/Users/zhenzhenweng/Downloads/images/000001281.png'
p335
sI335
S'/Users/zhenzhenweng/Downloads/images/000000821.png'
p336
sI336
S'/Users/zhenzhenweng/Downloads/images/000006288.png'
p337
sI337
S'/Users/zhenzhenweng/Downloads/images/000005781.png'
p338
sI338
S'/Users/zhenzhenweng/Downloads/images/000000809.png'
p339
sI339
S'/Users/zhenzhenweng/Downloads/images/000001054.png'
p340
sI340
S'/Users/zhenzhenweng/Downloads/images/000003125.png'
p341
sI341
S'/Users/zhenzhenweng/Downloads/images/000003131.png'
p342
sI342
S'/Users/zhenzhenweng/Downloads/images/000001040.png'
p343
sI343
S'/Users/zhenzhenweng/Downloads/images/000001068.png'
p344
sI344
S'/Users/zhenzhenweng/Downloads/images/000003119.png'
p345
sI345
S'/Users/zhenzhenweng/Downloads/images/000001097.png'
p346
sI346
S'/Users/zhenzhenweng/Downloads/images/000001083.png'
p347
sI347
S'/Users/zhenzhenweng/Downloads/images/000001095.png'
p348
sI348
S'/Users/zhenzhenweng/Downloads/images/000001081.png'
p349
sI349
S'/Users/zhenzhenweng/Downloads/images/000003127.png'
p350
sI350
S'/Users/zhenzhenweng/Downloads/images/000001056.png'
p351
sI351
S'/Users/zhenzhenweng/Downloads/images/000001042.png'
p352
sI352
S'/Users/zhenzhenweng/Downloads/images/000003133.png'
p353
sI353
S'/Users/zhenzhenweng/Downloads/images/000001297.png'
p354
sI354
S'/Users/zhenzhenweng/Downloads/images/000000837.png'
p355
sI355
S'/Users/zhenzhenweng/Downloads/images/000005797.png'
p356
sI356
S'/Users/zhenzhenweng/Downloads/images/000004489.png'
p357
sI357
S'/Users/zhenzhenweng/Downloads/images/000005783.png'
p358
sI358
S'/Users/zhenzhenweng/Downloads/images/000000823.png'
p359
sI359
S'/Users/zhenzhenweng/Downloads/images/000001283.png'
p360
sI360
S'/Users/zhenzhenweng/Downloads/images/000001268.png'
p361
sI361
S'/Users/zhenzhenweng/Downloads/images/000000610.png'
p362
sI362
S'/Users/zhenzhenweng/Downloads/images/000004476.png'
p363
sI363
S'/Users/zhenzhenweng/Downloads/images/000003319.png'
p364
sI364
S'/Users/zhenzhenweng/Downloads/images/000005768.png'
p365
sI365
S'/Users/zhenzhenweng/Downloads/images/000004462.png'
p366
sI366
S'/Users/zhenzhenweng/Downloads/images/000000604.png'
p367
sI367
S'/Users/zhenzhenweng/Downloads/images/000001254.png'
p368
sI368
S'/Users/zhenzhenweng/Downloads/images/000003325.png'
p369
sI369
S'/Users/zhenzhenweng/Downloads/images/000005754.png'
p370
sI370
S'/Users/zhenzhenweng/Downloads/images/000000638.png'
p371
sI371
S'/Users/zhenzhenweng/Downloads/images/000003331.png'
p372
sI372
S'/Users/zhenzhenweng/Downloads/images/000005740.png'
p373
sI373
S'/Users/zhenzhenweng/Downloads/images/000004338.png'
p374
sI374
S'/Users/zhenzhenweng/Downloads/images/000001240.png'
p375
sI375
S'/Users/zhenzhenweng/Downloads/images/000005807.png'
p376
sI376
S'/Users/zhenzhenweng/Downloads/images/000005813.png'
p377
sI377
S'/Users/zhenzhenweng/Downloads/images/000000943.png'
p378
sI378
S'/Users/zhenzhenweng/Downloads/images/000003292.png'
p379
sI379
S'/Users/zhenzhenweng/Downloads/images/000003286.png'
p380
sI380
S'/Users/zhenzhenweng/Downloads/images/000000957.png'
p381
sI381
S'/Users/zhenzhenweng/Downloads/images/000000764.png'
p382
sI382
S'/Users/zhenzhenweng/Downloads/images/000006315.png'
p383
sI383
S'/Users/zhenzhenweng/Downloads/images/000004502.png'
p384
sI384
S'/Users/zhenzhenweng/Downloads/images/000003279.png'
p385
sI385
S'/Users/zhenzhenweng/Downloads/images/000004516.png'
p386
sI386
S'/Users/zhenzhenweng/Downloads/images/000000770.png'
p387
sI387
S'/Users/zhenzhenweng/Downloads/images/000006301.png'
p388
sI388
S'/Users/zhenzhenweng/Downloads/images/000001308.png'
p389
sI389
S'/Users/zhenzhenweng/Downloads/images/000001320.png'
p390
sI390
S'/Users/zhenzhenweng/Downloads/images/000003251.png'
p391
sI391
S'/Users/zhenzhenweng/Downloads/images/000000758.png'
p392
sI392
S'/Users/zhenzhenweng/Downloads/images/000000980.png'
p393
sI393
S'/Users/zhenzhenweng/Downloads/images/000006329.png'
p394
sI394
S'/Users/zhenzhenweng/Downloads/images/000000994.png'
p395
sI395
S'/Users/zhenzhenweng/Downloads/images/000003245.png'
p396
sI396
S'/Users/zhenzhenweng/Downloads/images/000001334.png'
p397
sI397
S'/Users/zhenzhenweng/Downloads/images/000003090.png'
p398
sI398
S'/Users/zhenzhenweng/Downloads/images/000000599.png'
p399
sI399
S'/Users/zhenzhenweng/Downloads/images/000003084.png'
p400
sI400
S'/Users/zhenzhenweng/Downloads/images/000000566.png'
p401
sI401
S'/Users/zhenzhenweng/Downloads/images/000000572.png'
p402
sI402
S'/Users/zhenzhenweng/Downloads/images/000001122.png'
p403
sI403
S'/Users/zhenzhenweng/Downloads/images/000001136.png'
p404
sI404
S'/Users/zhenzhenweng/Downloads/images/000001137.png'
p405
sI405
S'/Users/zhenzhenweng/Downloads/images/000001123.png'
p406
sI406
S'/Users/zhenzhenweng/Downloads/images/000000573.png'
p407
sI407
S'/Users/zhenzhenweng/Downloads/images/000000567.png'
p408
sI408
S'/Users/zhenzhenweng/Downloads/images/000003085.png'
p409
sI409
S'/Users/zhenzhenweng/Downloads/images/000000598.png'
p410
sI410
S'/Users/zhenzhenweng/Downloads/images/000003091.png'
p411
sI411
S'/Users/zhenzhenweng/Downloads/images/000003244.png'
p412
sI412
S'/Users/zhenzhenweng/Downloads/images/000000995.png'
p413
sI413
S'/Users/zhenzhenweng/Downloads/images/000001335.png'
p414
sI414
S'/Users/zhenzhenweng/Downloads/images/000001321.png'
p415
sI415
S'/Users/zhenzhenweng/Downloads/images/000006328.png'
p416
sI416
S'/Users/zhenzhenweng/Downloads/images/000000981.png'
p417
sI417
S'/Users/zhenzhenweng/Downloads/images/000000759.png'
p418
sI418
S'/Users/zhenzhenweng/Downloads/images/000003250.png'
p419
sI419
S'/Users/zhenzhenweng/Downloads/images/000006300.png'
p420
sI420
S'/Users/zhenzhenweng/Downloads/images/000000771.png'
p421
sI421
S'/Users/zhenzhenweng/Downloads/images/000004517.png'
p422
sI422
S'/Users/zhenzhenweng/Downloads/images/000003278.png'
p423
sI423
S'/Users/zhenzhenweng/Downloads/images/000001309.png'
p424
sI424
S'/Users/zhenzhenweng/Downloads/images/000004503.png'
p425
sI425
S'/Users/zhenzhenweng/Downloads/images/000006314.png'
p426
sI426
S'/Users/zhenzhenweng/Downloads/images/000000765.png'
p427
sI427
S'/Users/zhenzhenweng/Downloads/images/000000956.png'
p428
sI428
S'/Users/zhenzhenweng/Downloads/images/000003287.png'
p429
sI429
S'/Users/zhenzhenweng/Downloads/images/000003293.png'
p430
sI430
S'/Users/zhenzhenweng/Downloads/images/000000942.png'
p431
sI431
S'/Users/zhenzhenweng/Downloads/images/000005812.png'
p432
sI432
S'/Users/zhenzhenweng/Downloads/images/000005806.png'
p433
sI433
S'/Users/zhenzhenweng/Downloads/images/000005741.png'
p434
sI434
S'/Users/zhenzhenweng/Downloads/images/000003330.png'
p435
sI435
S'/Users/zhenzhenweng/Downloads/images/000000639.png'
p436
sI436
S'/Users/zhenzhenweng/Downloads/images/000001241.png'
p437
sI437
S'/Users/zhenzhenweng/Downloads/images/000004339.png'
p438
sI438
S'/Users/zhenzhenweng/Downloads/images/000001255.png'
p439
sI439
S'/Users/zhenzhenweng/Downloads/images/000005755.png'
p440
sI440
S'/Users/zhenzhenweng/Downloads/images/000003324.png'
p441
sI441
S'/Users/zhenzhenweng/Downloads/images/000000605.png'
p442
sI442
S'/Users/zhenzhenweng/Downloads/images/000004463.png'
p443
sI443
S'/Users/zhenzhenweng/Downloads/images/000001269.png'
p444
sI444
S'/Users/zhenzhenweng/Downloads/images/000005769.png'
p445
sI445
S'/Users/zhenzhenweng/Downloads/images/000003318.png'
p446
sI446
S'/Users/zhenzhenweng/Downloads/images/000004477.png'
p447
sI447
S'/Users/zhenzhenweng/Downloads/images/000000611.png'
p448
sI448
S'/Users/zhenzhenweng/Downloads/images/000000822.png'
p449
sI449
S'/Users/zhenzhenweng/Downloads/images/000005782.png'
p450
sI450
S'/Users/zhenzhenweng/Downloads/images/000001282.png'
p451
sI451
S'/Users/zhenzhenweng/Downloads/images/000001296.png'
p452
sI452
S'/Users/zhenzhenweng/Downloads/images/000004488.png'
p453
sI453
S'/Users/zhenzhenweng/Downloads/images/000005796.png'
p454
sI454
S'/Users/zhenzhenweng/Downloads/images/000000836.png'
p455
sI455
S'/Users/zhenzhenweng/Downloads/images/000001043.png'
p456
sI456
S'/Users/zhenzhenweng/Downloads/images/000003132.png'
p457
sI457
S'/Users/zhenzhenweng/Downloads/images/000003126.png'
p458
sI458
S'/Users/zhenzhenweng/Downloads/images/000001057.png'
p459
sI459
S'/Users/zhenzhenweng/Downloads/images/000001080.png'
p460
sI460
S'/Users/zhenzhenweng/Downloads/images/000001094.png'
p461
sI461
S'/Users/zhenzhenweng/Downloads/images/000003196.png'
p462
sI462
S'/Users/zhenzhenweng/Downloads/images/000003141.png'
p463
sI463
S'/Users/zhenzhenweng/Downloads/images/000001030.png'
p464
sI464
S'/Users/zhenzhenweng/Downloads/images/000001024.png'
p465
sI465
S'/Users/zhenzhenweng/Downloads/images/000001018.png'
p466
sI466
S'/Users/zhenzhenweng/Downloads/images/000004389.png'
p467
sI467
S'/Users/zhenzhenweng/Downloads/images/000000689.png'
p468
sI468
S'/Users/zhenzhenweng/Downloads/images/000000851.png'
p469
sI469
S'/Users/zhenzhenweng/Downloads/images/000000845.png'
p470
sI470
S'/Users/zhenzhenweng/Downloads/images/000005915.png'
p471
sI471
S'/Users/zhenzhenweng/Downloads/images/000005901.png'
p472
sI472
S'/Users/zhenzhenweng/Downloads/images/000000879.png'
p473
sI473
S'/Users/zhenzhenweng/Downloads/images/000001232.png'
p474
sI474
S'/Users/zhenzhenweng/Downloads/images/000000892.png'
p475
sI475
S'/Users/zhenzhenweng/Downloads/images/000003343.png'
p476
sI476
S'/Users/zhenzhenweng/Downloads/images/000005732.png'
p477
sI477
S'/Users/zhenzhenweng/Downloads/images/000004438.png'
p478
sI478
S'/Users/zhenzhenweng/Downloads/images/000005726.png'
p479
sI479
S'/Users/zhenzhenweng/Downloads/images/000000886.png'
p480
sI480
S'/Users/zhenzhenweng/Downloads/images/000001226.png'
p481
sI481
S'/Users/zhenzhenweng/Downloads/images/000004376.png'
p482
sI482
S'/Users/zhenzhenweng/Downloads/images/000004410.png'
p483
sI483
S'/Users/zhenzhenweng/Downloads/images/000000676.png'
p484
sI484
S'/Users/zhenzhenweng/Downloads/images/000000662.png'
p485
sI485
S'/Users/zhenzhenweng/Downloads/images/000004404.png'
p486
sI486
S'/Users/zhenzhenweng/Downloads/images/000004362.png'
p487
sI487
S'/Users/zhenzhenweng/Downloads/images/000001385.png'
p488
sI488
S'/Users/zhenzhenweng/Downloads/images/000005685.png'
p489
sI489
S'/Users/zhenzhenweng/Downloads/images/000000925.png'
p490
sI490
S'/Users/zhenzhenweng/Downloads/images/000000931.png'
p491
sI491
S'/Users/zhenzhenweng/Downloads/images/000005849.png'
p492
sI492
S'/Users/zhenzhenweng/Downloads/images/000005691.png'
p493
sI493
S'/Users/zhenzhenweng/Downloads/images/000001391.png'
p494
sI494
S'/Users/zhenzhenweng/Downloads/images/000000919.png'
p495
sI495
S'/Users/zhenzhenweng/Downloads/images/000005861.png'
p496
sI496
S'/Users/zhenzhenweng/Downloads/images/000005875.png'
p497
sI497
S'/Users/zhenzhenweng/Downloads/images/000001346.png'
p498
sI498
S'/Users/zhenzhenweng/Downloads/images/000001420.png'
p499
sI499
S'/Users/zhenzhenweng/Downloads/images/000004558.png'
p500
sI500
S'/Users/zhenzhenweng/Downloads/images/000003237.png'
p501
sI501
S'/Users/zhenzhenweng/Downloads/images/000003223.png'
p502
sI502
S'/Users/zhenzhenweng/Downloads/images/000001434.png'
p503
sI503
S'/Users/zhenzhenweng/Downloads/images/000001352.png'
p504
sI504
S'/Users/zhenzhenweng/Downloads/images/000004564.png'
p505
sI505
S'/Users/zhenzhenweng/Downloads/images/000000702.png'
p506
sI506
S'/Users/zhenzhenweng/Downloads/images/000006373.png'
p507
sI507
S'/Users/zhenzhenweng/Downloads/images/000000716.png'
p508
sI508
S'/Users/zhenzhenweng/Downloads/images/000006367.png'
p509
sI509
S'/Users/zhenzhenweng/Downloads/images/000001408.png'
p510
sI510
S'/Users/zhenzhenweng/Downloads/images/000004570.png'
p511
sI511
S'/Users/zhenzhenweng/Downloads/images/000001187.png'
p512
sI512
S'/Users/zhenzhenweng/Downloads/images/000001193.png'
p513
sI513
S'/Users/zhenzhenweng/Downloads/images/000001144.png'
p514
sI514
S'/Users/zhenzhenweng/Downloads/images/000001150.png'
p515
sI515
S'/Users/zhenzhenweng/Downloads/images/000000266.png'
p516
sI516
S'/Users/zhenzhenweng/Downloads/images/000001178.png'
p517
sI517
S'/Users/zhenzhenweng/Downloads/images/000001179.png'
p518
sI518
S'/Users/zhenzhenweng/Downloads/images/000001151.png'
p519
sI519
S'/Users/zhenzhenweng/Downloads/images/000001145.png'
p520
sI520
S'/Users/zhenzhenweng/Downloads/images/000001192.png'
p521
sI521
S'/Users/zhenzhenweng/Downloads/images/000001186.png'
p522
sI522
S'/Users/zhenzhenweng/Downloads/images/000004571.png'
p523
sI523
S'/Users/zhenzhenweng/Downloads/images/000001409.png'
p524
sI524
S'/Users/zhenzhenweng/Downloads/images/000006366.png'
p525
sI525
S'/Users/zhenzhenweng/Downloads/images/000000717.png'
p526
sI526
S'/Users/zhenzhenweng/Downloads/images/000006372.png'
p527
sI527
S'/Users/zhenzhenweng/Downloads/images/000000703.png'
p528
sI528
S'/Users/zhenzhenweng/Downloads/images/000004565.png'
p529
sI529
S'/Users/zhenzhenweng/Downloads/images/000001435.png'
p530
sI530
S'/Users/zhenzhenweng/Downloads/images/000003222.png'
p531
sI531
S'/Users/zhenzhenweng/Downloads/images/000001353.png'
p532
sI532
S'/Users/zhenzhenweng/Downloads/images/000001347.png'
p533
sI533
S'/Users/zhenzhenweng/Downloads/images/000003236.png'
p534
sI534
S'/Users/zhenzhenweng/Downloads/images/000004559.png'
p535
sI535
S'/Users/zhenzhenweng/Downloads/images/000001421.png'
p536
sI536
S'/Users/zhenzhenweng/Downloads/images/000005874.png'
p537
sI537
S'/Users/zhenzhenweng/Downloads/images/000005860.png'
p538
sI538
S'/Users/zhenzhenweng/Downloads/images/000000918.png'
p539
sI539
S'/Users/zhenzhenweng/Downloads/images/000005690.png'
p540
sI540
S'/Users/zhenzhenweng/Downloads/images/000005848.png'
p541
sI541
S'/Users/zhenzhenweng/Downloads/images/000000930.png'
p542
sI542
S'/Users/zhenzhenweng/Downloads/images/000001390.png'
p543
sI543
S'/Users/zhenzhenweng/Downloads/images/000001384.png'
p544
sI544
S'/Users/zhenzhenweng/Downloads/images/000000924.png'
p545
sI545
S'/Users/zhenzhenweng/Downloads/images/000005684.png'
p546
sI546
S'/Users/zhenzhenweng/Downloads/images/000004405.png'
p547
sI547
S'/Users/zhenzhenweng/Downloads/images/000000663.png'
p548
sI548
S'/Users/zhenzhenweng/Downloads/images/000004363.png'
p549
sI549
S'/Users/zhenzhenweng/Downloads/images/000004377.png'
p550
sI550
S'/Users/zhenzhenweng/Downloads/images/000000677.png'
p551
sI551
S'/Users/zhenzhenweng/Downloads/images/000004411.png'
p552
sI552
S'/Users/zhenzhenweng/Downloads/images/000000887.png'
p553
sI553
S'/Users/zhenzhenweng/Downloads/images/000005727.png'
p554
sI554
S'/Users/zhenzhenweng/Downloads/images/000004439.png'
p555
sI555
S'/Users/zhenzhenweng/Downloads/images/000003356.png'
p556
sI556
S'/Users/zhenzhenweng/Downloads/images/000001227.png'
p557
sI557
S'/Users/zhenzhenweng/Downloads/images/000001233.png'
p558
sI558
S'/Users/zhenzhenweng/Downloads/images/000005733.png'
p559
sI559
S'/Users/zhenzhenweng/Downloads/images/000003342.png'
p560
sI560
S'/Users/zhenzhenweng/Downloads/images/000000893.png'
p561
sI561
S'/Users/zhenzhenweng/Downloads/images/000000878.png'
p562
sI562
S'/Users/zhenzhenweng/Downloads/images/000005900.png'
p563
sI563
S'/Users/zhenzhenweng/Downloads/images/000005914.png'
p564
sI564
S'/Users/zhenzhenweng/Downloads/images/000000844.png'
p565
sI565
S'/Users/zhenzhenweng/Downloads/images/000004388.png'
p566
sI566
S'/Users/zhenzhenweng/Downloads/images/000000850.png'
p567
sI567
S'/Users/zhenzhenweng/Downloads/images/000000688.png'
p568
sI568
S'/Users/zhenzhenweng/Downloads/images/000001019.png'
p569
sI569
S'/Users/zhenzhenweng/Downloads/images/000001025.png'
p570
sI570
S'/Users/zhenzhenweng/Downloads/images/000003140.png'
p571
sI571
S'/Users/zhenzhenweng/Downloads/images/000001031.png'
p572
sI572
S'/Users/zhenzhenweng/Downloads/images/000003197.png'
p573
sI573
S'/Users/zhenzhenweng/Downloads/images/000003195.png'
p574
sI574
S'/Users/zhenzhenweng/Downloads/images/000001027.png'
p575
sI575
S'/Users/zhenzhenweng/Downloads/images/000001033.png'
p576
sI576
S'/Users/zhenzhenweng/Downloads/images/000003142.png'
p577
sI577
S'/Users/zhenzhenweng/Downloads/images/000000846.png'
p578
sI578
S'/Users/zhenzhenweng/Downloads/images/000000852.png'
p579
sI579
S'/Users/zhenzhenweng/Downloads/images/000005902.png'
p580
sI580
S'/Users/zhenzhenweng/Downloads/images/000005916.png'
p581
sI581
S'/Users/zhenzhenweng/Downloads/images/000001225.png'
p582
sI582
S'/Users/zhenzhenweng/Downloads/images/000003354.png'
p583
sI583
S'/Users/zhenzhenweng/Downloads/images/000005725.png'
p584
sI584
S'/Users/zhenzhenweng/Downloads/images/000000885.png'
p585
sI585
S'/Users/zhenzhenweng/Downloads/images/000000891.png'
p586
sI586
S'/Users/zhenzhenweng/Downloads/images/000000649.png'
p587
sI587
S'/Users/zhenzhenweng/Downloads/images/000003340.png'
p588
sI588
S'/Users/zhenzhenweng/Downloads/images/000005731.png'
p589
sI589
S'/Users/zhenzhenweng/Downloads/images/000001231.png'
p590
sI590
S'/Users/zhenzhenweng/Downloads/images/000004361.png'
p591
sI591
S'/Users/zhenzhenweng/Downloads/images/000001219.png'
p592
sI592
S'/Users/zhenzhenweng/Downloads/images/000000661.png'
p593
sI593
S'/Users/zhenzhenweng/Downloads/images/000004407.png'
p594
sI594
S'/Users/zhenzhenweng/Downloads/images/000005719.png'
p595
sI595
S'/Users/zhenzhenweng/Downloads/images/000004413.png'
p596
sI596
S'/Users/zhenzhenweng/Downloads/images/000000675.png'
p597
sI597
S'/Users/zhenzhenweng/Downloads/images/000004375.png'
p598
sI598
S'/Users/zhenzhenweng/Downloads/images/000001392.png'
p599
sI599
S'/Users/zhenzhenweng/Downloads/images/000000932.png'
p600
sI600
S'/Users/zhenzhenweng/Downloads/images/000005692.png'
p601
sI601
S'/Users/zhenzhenweng/Downloads/images/000005686.png'
p602
sI602
S'/Users/zhenzhenweng/Downloads/images/000000926.png'
p603
sI603
S'/Users/zhenzhenweng/Downloads/images/000001386.png'
p604
sI604
S'/Users/zhenzhenweng/Downloads/images/000005876.png'
p605
sI605
S'/Users/zhenzhenweng/Downloads/images/000005862.png'
p606
sI606
S'/Users/zhenzhenweng/Downloads/images/000001351.png'
p607
sI607
S'/Users/zhenzhenweng/Downloads/images/000005889.png'
p608
sI608
S'/Users/zhenzhenweng/Downloads/images/000003220.png'
p609
sI609
S'/Users/zhenzhenweng/Downloads/images/000000729.png'
p610
sI610
S'/Users/zhenzhenweng/Downloads/images/000006358.png'
p611
sI611
S'/Users/zhenzhenweng/Downloads/images/000001437.png'
p612
sI612
S'/Users/zhenzhenweng/Downloads/images/000001423.png'
p613
sI613
S'/Users/zhenzhenweng/Downloads/images/000003234.png'
p614
sI614
S'/Users/zhenzhenweng/Downloads/images/000001345.png'
p615
sI615
S'/Users/zhenzhenweng/Downloads/images/000000715.png'
p616
sI616
S'/Users/zhenzhenweng/Downloads/images/000006364.png'
p617
sI617
S'/Users/zhenzhenweng/Downloads/images/000004573.png'
p618
sI618
S'/Users/zhenzhenweng/Downloads/images/000004567.png'
p619
sI619
S'/Users/zhenzhenweng/Downloads/images/000003208.png'
p620
sI620
S'/Users/zhenzhenweng/Downloads/images/000000701.png'
p621
sI621
S'/Users/zhenzhenweng/Downloads/images/000006370.png'
p622
sI622
S'/Users/zhenzhenweng/Downloads/images/000001379.png'
p623
sI623
S'/Users/zhenzhenweng/Downloads/images/000001190.png'
p624
sI624
S'/Users/zhenzhenweng/Downloads/images/000001184.png'
p625
sI625
S'/Users/zhenzhenweng/Downloads/images/000001153.png'
p626
sI626
S'/Users/zhenzhenweng/Downloads/images/000000259.png'
p627
sI627
S'/Users/zhenzhenweng/Downloads/images/000001147.png'
p628
sI628
S'/Users/zhenzhenweng/Downloads/images/000000265.png'
p629
sI629
S'/Users/zhenzhenweng/Downloads/images/000000264.png'
p630
sI630
S'/Users/zhenzhenweng/Downloads/images/000001146.png'
p631
sI631
S'/Users/zhenzhenweng/Downloads/images/000000258.png'
p632
sI632
S'/Users/zhenzhenweng/Downloads/images/000001152.png'
p633
sI633
S'/Users/zhenzhenweng/Downloads/images/000001185.png'
p634
sI634
S'/Users/zhenzhenweng/Downloads/images/000001191.png'
p635
sI635
S'/Users/zhenzhenweng/Downloads/images/000006371.png'
p636
sI636
S'/Users/zhenzhenweng/Downloads/images/000000700.png'
p637
sI637
S'/Users/zhenzhenweng/Downloads/images/000003209.png'
p638
sI638
S'/Users/zhenzhenweng/Downloads/images/000004566.png'
p639
sI639
S'/Users/zhenzhenweng/Downloads/images/000001378.png'
p640
sI640
S'/Users/zhenzhenweng/Downloads/images/000004572.png'
p641
sI641
S'/Users/zhenzhenweng/Downloads/images/000006365.png'
p642
sI642
S'/Users/zhenzhenweng/Downloads/images/000000714.png'
p643
sI643
S'/Users/zhenzhenweng/Downloads/images/000003235.png'
p644
sI644
S'/Users/zhenzhenweng/Downloads/images/000001422.png'
p645
sI645
S'/Users/zhenzhenweng/Downloads/images/000001344.png'
p646
sI646
S'/Users/zhenzhenweng/Downloads/images/000001350.png'
p647
sI647
S'/Users/zhenzhenweng/Downloads/images/000001436.png'
p648
sI648
S'/Users/zhenzhenweng/Downloads/images/000006359.png'
p649
sI649
S'/Users/zhenzhenweng/Downloads/images/000000728.png'
p650
sI650
S'/Users/zhenzhenweng/Downloads/images/000003221.png'
p651
sI651
S'/Users/zhenzhenweng/Downloads/images/000005888.png'
p652
sI652
S'/Users/zhenzhenweng/Downloads/images/000005863.png'
p653
sI653
S'/Users/zhenzhenweng/Downloads/images/000005877.png'
p654
sI654
S'/Users/zhenzhenweng/Downloads/images/000000927.png'
p655
sI655
S'/Users/zhenzhenweng/Downloads/images/000005687.png'
p656
sI656
S'/Users/zhenzhenweng/Downloads/images/000001387.png'
p657
sI657
S'/Users/zhenzhenweng/Downloads/images/000001393.png'
p658
sI658
S'/Users/zhenzhenweng/Downloads/images/000005693.png'
p659
sI659
S'/Users/zhenzhenweng/Downloads/images/000000933.png'
p660
sI660
S'/Users/zhenzhenweng/Downloads/images/000000674.png'
p661
sI661
S'/Users/zhenzhenweng/Downloads/images/000004412.png'
p662
sI662
S'/Users/zhenzhenweng/Downloads/images/000004374.png'
p663
sI663
S'/Users/zhenzhenweng/Downloads/images/000001218.png'
p664
sI664
S'/Users/zhenzhenweng/Downloads/images/000004360.png'
p665
sI665
S'/Users/zhenzhenweng/Downloads/images/000005718.png'
p666
sI666
S'/Users/zhenzhenweng/Downloads/images/000004406.png'
p667
sI667
S'/Users/zhenzhenweng/Downloads/images/000000660.png'
p668
sI668
S'/Users/zhenzhenweng/Downloads/images/000005730.png'
p669
sI669
S'/Users/zhenzhenweng/Downloads/images/000003341.png'
p670
sI670
S'/Users/zhenzhenweng/Downloads/images/000000648.png'
p671
sI671
S'/Users/zhenzhenweng/Downloads/images/000000890.png'
p672
sI672
S'/Users/zhenzhenweng/Downloads/images/000001230.png'
p673
sI673
S'/Users/zhenzhenweng/Downloads/images/000001224.png'
p674
sI674
S'/Users/zhenzhenweng/Downloads/images/000000884.png'
p675
sI675
S'/Users/zhenzhenweng/Downloads/images/000005724.png'
p676
sI676
S'/Users/zhenzhenweng/Downloads/images/000003355.png'
p677
sI677
S'/Users/zhenzhenweng/Downloads/images/000005917.png'
p678
sI678
S'/Users/zhenzhenweng/Downloads/images/000005903.png'
p679
sI679
S'/Users/zhenzhenweng/Downloads/images/000000853.png'
p680
sI680
S'/Users/zhenzhenweng/Downloads/images/000000847.png'
p681
sI681
S'/Users/zhenzhenweng/Downloads/images/000001032.png'
p682
sI682
S'/Users/zhenzhenweng/Downloads/images/000003143.png'
p683
sI683
S'/Users/zhenzhenweng/Downloads/images/000001026.png'
p684
sI684
S'/Users/zhenzhenweng/Downloads/images/000003194.png'
p685
sI685
S'/Users/zhenzhenweng/Downloads/images/000001022.png'
p686
sI686
S'/Users/zhenzhenweng/Downloads/images/000003147.png'
p687
sI687
S'/Users/zhenzhenweng/Downloads/images/000001036.png'
p688
sI688
S'/Users/zhenzhenweng/Downloads/images/000005907.png'
p689
sI689
S'/Users/zhenzhenweng/Downloads/images/000005913.png'
p690
sI690
S'/Users/zhenzhenweng/Downloads/images/000000843.png'
p691
sI691
S'/Users/zhenzhenweng/Downloads/images/000000857.png'
p692
sI692
S'/Users/zhenzhenweng/Downloads/images/000000664.png'
p693
sI693
S'/Users/zhenzhenweng/Downloads/images/000004402.png'
p694
sI694
S'/Users/zhenzhenweng/Downloads/images/000004364.png'
p695
sI695
S'/Users/zhenzhenweng/Downloads/images/000001208.png'
p696
sI696
S'/Users/zhenzhenweng/Downloads/images/000004370.png'
p697
sI697
S'/Users/zhenzhenweng/Downloads/images/000004416.png'
p698
sI698
S'/Users/zhenzhenweng/Downloads/images/000005708.png'
p699
sI699
S'/Users/zhenzhenweng/Downloads/images/000000670.png'
p700
sI700
S'/Users/zhenzhenweng/Downloads/images/000003351.png'
p701
sI701
S'/Users/zhenzhenweng/Downloads/images/000005720.png'
p702
sI702
S'/Users/zhenzhenweng/Downloads/images/000000880.png'
p703
sI703
S'/Users/zhenzhenweng/Downloads/images/000000658.png'
p704
sI704
S'/Users/zhenzhenweng/Downloads/images/000001220.png'
p705
sI705
S'/Users/zhenzhenweng/Downloads/images/000004358.png'
p706
sI706
S'/Users/zhenzhenweng/Downloads/images/000001234.png'
p707
sI707
S'/Users/zhenzhenweng/Downloads/images/000000894.png'
p708
sI708
S'/Users/zhenzhenweng/Downloads/images/000003345.png'
p709
sI709
S'/Users/zhenzhenweng/Downloads/images/000005734.png'
p710
sI710
S'/Users/zhenzhenweng/Downloads/images/000005873.png'
p711
sI711
S'/Users/zhenzhenweng/Downloads/images/000005867.png'
p712
sI712
S'/Users/zhenzhenweng/Downloads/images/000000937.png'
p713
sI713
S'/Users/zhenzhenweng/Downloads/images/000005697.png'
p714
sI714
S'/Users/zhenzhenweng/Downloads/images/000001397.png'
p715
sI715
S'/Users/zhenzhenweng/Downloads/images/000001383.png'
p716
sI716
S'/Users/zhenzhenweng/Downloads/images/000000923.png'
p717
sI717
S'/Users/zhenzhenweng/Downloads/images/000000710.png'
p718
sI718
S'/Users/zhenzhenweng/Downloads/images/000006361.png'
p719
sI719
S'/Users/zhenzhenweng/Downloads/images/000003219.png'
p720
sI720
S'/Users/zhenzhenweng/Downloads/images/000004576.png'
p721
sI721
S'/Users/zhenzhenweng/Downloads/images/000001368.png'
p722
sI722
S'/Users/zhenzhenweng/Downloads/images/000004562.png'
p723
sI723
S'/Users/zhenzhenweng/Downloads/images/000000704.png'
p724
sI724
S'/Users/zhenzhenweng/Downloads/images/000006375.png'
p725
sI725
S'/Users/zhenzhenweng/Downloads/images/000003225.png'
p726
sI726
S'/Users/zhenzhenweng/Downloads/images/000001432.png'
p727
sI727
S'/Users/zhenzhenweng/Downloads/images/000001354.png'
p728
sI728
S'/Users/zhenzhenweng/Downloads/images/000001340.png'
p729
sI729
S'/Users/zhenzhenweng/Downloads/images/000000738.png'
p730
sI730
S'/Users/zhenzhenweng/Downloads/images/000001426.png'
p731
sI731
S'/Users/zhenzhenweng/Downloads/images/000006349.png'
p732
sI732
S'/Users/zhenzhenweng/Downloads/images/000005898.png'
p733
sI733
S'/Users/zhenzhenweng/Downloads/images/000003231.png'
p734
sI734
S'/Users/zhenzhenweng/Downloads/images/000001195.png'
p735
sI735
S'/Users/zhenzhenweng/Downloads/images/000001181.png'
p736
sI736
S'/Users/zhenzhenweng/Downloads/images/000000260.png'
p737
sI737
S'/Users/zhenzhenweng/Downloads/images/000000248.png'
p738
sI738
S'/Users/zhenzhenweng/Downloads/images/000001156.png'
p739
sI739
S'/Users/zhenzhenweng/Downloads/images/000001142.png'
p740
sI740
S'/Users/zhenzhenweng/Downloads/images/000001143.png'
p741
sI741
S'/Users/zhenzhenweng/Downloads/images/000001157.png'
p742
sI742
S'/Users/zhenzhenweng/Downloads/images/000000249.png'
p743
sI743
S'/Users/zhenzhenweng/Downloads/images/000000261.png'
p744
sI744
S'/Users/zhenzhenweng/Downloads/images/000001180.png'
p745
sI745
S'/Users/zhenzhenweng/Downloads/images/000001194.png'
p746
sI746
S'/Users/zhenzhenweng/Downloads/images/000001341.png'
p747
sI747
S'/Users/zhenzhenweng/Downloads/images/000003230.png'
p748
sI748
S'/Users/zhenzhenweng/Downloads/images/000005899.png'
p749
sI749
S'/Users/zhenzhenweng/Downloads/images/000006348.png'
p750
sI750
S'/Users/zhenzhenweng/Downloads/images/000001427.png'
p751
sI751
S'/Users/zhenzhenweng/Downloads/images/000000739.png'
p752
sI752
S'/Users/zhenzhenweng/Downloads/images/000001433.png'
p753
sI753
S'/Users/zhenzhenweng/Downloads/images/000003224.png'
p754
sI754
S'/Users/zhenzhenweng/Downloads/images/000001355.png'
p755
sI755
S'/Users/zhenzhenweng/Downloads/images/000006374.png'
p756
sI756
S'/Users/zhenzhenweng/Downloads/images/000000705.png'
p757
sI757
S'/Users/zhenzhenweng/Downloads/images/000004563.png'
p758
sI758
S'/Users/zhenzhenweng/Downloads/images/000004577.png'
p759
sI759
S'/Users/zhenzhenweng/Downloads/images/000003218.png'
p760
sI760
S'/Users/zhenzhenweng/Downloads/images/000006360.png'
p761
sI761
S'/Users/zhenzhenweng/Downloads/images/000000711.png'
p762
sI762
S'/Users/zhenzhenweng/Downloads/images/000001369.png'
p763
sI763
S'/Users/zhenzhenweng/Downloads/images/000001382.png'
p764
sI764
S'/Users/zhenzhenweng/Downloads/images/000000922.png'
p765
sI765
S'/Users/zhenzhenweng/Downloads/images/000005696.png'
p766
sI766
S'/Users/zhenzhenweng/Downloads/images/000004588.png'
p767
sI767
S'/Users/zhenzhenweng/Downloads/images/000000936.png'
p768
sI768
S'/Users/zhenzhenweng/Downloads/images/000001396.png'
p769
sI769
S'/Users/zhenzhenweng/Downloads/images/000005866.png'
p770
sI770
S'/Users/zhenzhenweng/Downloads/images/000005872.png'
p771
sI771
S'/Users/zhenzhenweng/Downloads/images/000001235.png'
p772
sI772
S'/Users/zhenzhenweng/Downloads/images/000005735.png'
p773
sI773
S'/Users/zhenzhenweng/Downloads/images/000003344.png'
p774
sI774
S'/Users/zhenzhenweng/Downloads/images/000000895.png'
p775
sI775
S'/Users/zhenzhenweng/Downloads/images/000000659.png'
p776
sI776
S'/Users/zhenzhenweng/Downloads/images/000000881.png'
p777
sI777
S'/Users/zhenzhenweng/Downloads/images/000005721.png'
p778
sI778
S'/Users/zhenzhenweng/Downloads/images/000003350.png'
p779
sI779
S'/Users/zhenzhenweng/Downloads/images/000004359.png'
p780
sI780
S'/Users/zhenzhenweng/Downloads/images/000001221.png'
p781
sI781
S'/Users/zhenzhenweng/Downloads/images/000004371.png'
p782
sI782
S'/Users/zhenzhenweng/Downloads/images/000001209.png'
p783
sI783
S'/Users/zhenzhenweng/Downloads/images/000000671.png'
p784
sI784
S'/Users/zhenzhenweng/Downloads/images/000005709.png'
p785
sI785
S'/Users/zhenzhenweng/Downloads/images/000004417.png'
p786
sI786
S'/Users/zhenzhenweng/Downloads/images/000004403.png'
p787
sI787
S'/Users/zhenzhenweng/Downloads/images/000000665.png'
p788
sI788
S'/Users/zhenzhenweng/Downloads/images/000004365.png'
p789
sI789
S'/Users/zhenzhenweng/Downloads/images/000000856.png'
p790
sI790
S'/Users/zhenzhenweng/Downloads/images/000000842.png'
p791
sI791
S'/Users/zhenzhenweng/Downloads/images/000005912.png'
p792
sI792
S'/Users/zhenzhenweng/Downloads/images/000005906.png'
p793
sI793
S'/Users/zhenzhenweng/Downloads/images/000003146.png'
p794
sI794
S'/Users/zhenzhenweng/Downloads/images/000001037.png'
p795
sI795
S'/Users/zhenzhenweng/Downloads/images/000001023.png'
p796
sI796
S'/Users/zhenzhenweng/Downloads/images/000001009.png'
p797
sI797
S'/Users/zhenzhenweng/Downloads/images/000001035.png'
p798
sI798
S'/Users/zhenzhenweng/Downloads/images/000003144.png'
p799
sI799
S'/Users/zhenzhenweng/Downloads/images/000001021.png'
p800
sI800
S'/Users/zhenzhenweng/Downloads/images/000000868.png'
p801
sI801
S'/Users/zhenzhenweng/Downloads/images/000005910.png'
p802
sI802
S'/Users/zhenzhenweng/Downloads/images/000005904.png'
p803
sI803
S'/Users/zhenzhenweng/Downloads/images/000000854.png'
p804
sI804
S'/Users/zhenzhenweng/Downloads/images/000004398.png'
p805
sI805
S'/Users/zhenzhenweng/Downloads/images/000000698.png'
p806
sI806
S'/Users/zhenzhenweng/Downloads/images/000000840.png'
p807
sI807
S'/Users/zhenzhenweng/Downloads/images/000004415.png'
p808
sI808
S'/Users/zhenzhenweng/Downloads/images/000000673.png'
p809
sI809
S'/Users/zhenzhenweng/Downloads/images/000004373.png'
p810
sI810
S'/Users/zhenzhenweng/Downloads/images/000004367.png'
p811
sI811
S'/Users/zhenzhenweng/Downloads/images/000000667.png'
p812
sI812
S'/Users/zhenzhenweng/Downloads/images/000004401.png'
p813
sI813
S'/Users/zhenzhenweng/Downloads/images/000000897.png'
p814
sI814
S'/Users/zhenzhenweng/Downloads/images/000004429.png'
p815
sI815
S'/Users/zhenzhenweng/Downloads/images/000003346.png'
p816
sI816
S'/Users/zhenzhenweng/Downloads/images/000005737.png'
p817
sI817
S'/Users/zhenzhenweng/Downloads/images/000001237.png'
p818
sI818
S'/Users/zhenzhenweng/Downloads/images/000001223.png'
p819
sI819
S'/Users/zhenzhenweng/Downloads/images/000003352.png'
p820
sI820
S'/Users/zhenzhenweng/Downloads/images/000005723.png'
p821
sI821
S'/Users/zhenzhenweng/Downloads/images/000000883.png'
p822
sI822
S'/Users/zhenzhenweng/Downloads/images/000005864.png'
p823
sI823
S'/Users/zhenzhenweng/Downloads/images/000005870.png'
p824
sI824
S'/Users/zhenzhenweng/Downloads/images/000000908.png'
p825
sI825
S'/Users/zhenzhenweng/Downloads/images/000005858.png'
p826
sI826
S'/Users/zhenzhenweng/Downloads/images/000006389.png'
p827
sI827
S'/Users/zhenzhenweng/Downloads/images/000000920.png'
p828
sI828
S'/Users/zhenzhenweng/Downloads/images/000001380.png'
p829
sI829
S'/Users/zhenzhenweng/Downloads/images/000001394.png'
p830
sI830
S'/Users/zhenzhenweng/Downloads/images/000000934.png'
p831
sI831
S'/Users/zhenzhenweng/Downloads/images/000005694.png'
p832
sI832
S'/Users/zhenzhenweng/Downloads/images/000004561.png'
p833
sI833
S'/Users/zhenzhenweng/Downloads/images/000000707.png'
p834
sI834
S'/Users/zhenzhenweng/Downloads/images/000001419.png'
p835
sI835
S'/Users/zhenzhenweng/Downloads/images/000006376.png'
p836
sI836
S'/Users/zhenzhenweng/Downloads/images/000000713.png'
p837
sI837
S'/Users/zhenzhenweng/Downloads/images/000006362.png'
p838
sI838
S'/Users/zhenzhenweng/Downloads/images/000004575.png'
p839
sI839
S'/Users/zhenzhenweng/Downloads/images/000001425.png'
p840
sI840
S'/Users/zhenzhenweng/Downloads/images/000003232.png'
p841
sI841
S'/Users/zhenzhenweng/Downloads/images/000001343.png'
p842
sI842
S'/Users/zhenzhenweng/Downloads/images/000001357.png'
p843
sI843
S'/Users/zhenzhenweng/Downloads/images/000003226.png'
p844
sI844
S'/Users/zhenzhenweng/Downloads/images/000004549.png'
p845
sI845
S'/Users/zhenzhenweng/Downloads/images/000001431.png'
p846
sI846
S'/Users/zhenzhenweng/Downloads/images/000001182.png'
p847
sI847
S'/Users/zhenzhenweng/Downloads/images/000001196.png'
p848
sI848
S'/Users/zhenzhenweng/Downloads/images/000000263.png'
p849
sI849
S'/Users/zhenzhenweng/Downloads/images/000001169.png'
p850
sI850
S'/Users/zhenzhenweng/Downloads/images/000001141.png'
p851
sI851
S'/Users/zhenzhenweng/Downloads/images/000001155.png'
p852
sI852
S'/Users/zhenzhenweng/Downloads/images/000001154.png'
p853
sI853
S'/Users/zhenzhenweng/Downloads/images/000001140.png'
p854
sI854
S'/Users/zhenzhenweng/Downloads/images/000001168.png'
p855
sI855
S'/Users/zhenzhenweng/Downloads/images/000000262.png'
p856
sI856
S'/Users/zhenzhenweng/Downloads/images/000001197.png'
p857
sI857
S'/Users/zhenzhenweng/Downloads/images/000001183.png'
p858
sI858
S'/Users/zhenzhenweng/Downloads/images/000001356.png'
p859
sI859
S'/Users/zhenzhenweng/Downloads/images/000001430.png'
p860
sI860
S'/Users/zhenzhenweng/Downloads/images/000004548.png'
p861
sI861
S'/Users/zhenzhenweng/Downloads/images/000003227.png'
p862
sI862
S'/Users/zhenzhenweng/Downloads/images/000003233.png'
p863
sI863
S'/Users/zhenzhenweng/Downloads/images/000001424.png'
p864
sI864
S'/Users/zhenzhenweng/Downloads/images/000001342.png'
p865
sI865
S'/Users/zhenzhenweng/Downloads/images/000004574.png'
p866
sI866
S'/Users/zhenzhenweng/Downloads/images/000006363.png'
p867
sI867
S'/Users/zhenzhenweng/Downloads/images/000000712.png'
p868
sI868
S'/Users/zhenzhenweng/Downloads/images/000006377.png'
p869
sI869
S'/Users/zhenzhenweng/Downloads/images/000001418.png'
p870
sI870
S'/Users/zhenzhenweng/Downloads/images/000000706.png'
p871
sI871
S'/Users/zhenzhenweng/Downloads/images/000004560.png'
p872
sI872
S'/Users/zhenzhenweng/Downloads/images/000001395.png'
p873
sI873
S'/Users/zhenzhenweng/Downloads/images/000005695.png'
p874
sI874
S'/Users/zhenzhenweng/Downloads/images/000000935.png'
p875
sI875
S'/Users/zhenzhenweng/Downloads/images/000000921.png'
p876
sI876
S'/Users/zhenzhenweng/Downloads/images/000006388.png'
p877
sI877
S'/Users/zhenzhenweng/Downloads/images/000005859.png'
p878
sI878
S'/Users/zhenzhenweng/Downloads/images/000001381.png'
p879
sI879
S'/Users/zhenzhenweng/Downloads/images/000000909.png'
p880
sI880
S'/Users/zhenzhenweng/Downloads/images/000005871.png'
p881
sI881
S'/Users/zhenzhenweng/Downloads/images/000005865.png'
p882
sI882
S'/Users/zhenzhenweng/Downloads/images/000001222.png'
p883
sI883
S'/Users/zhenzhenweng/Downloads/images/000000882.png'
p884
sI884
S'/Users/zhenzhenweng/Downloads/images/000005722.png'
p885
sI885
S'/Users/zhenzhenweng/Downloads/images/000003353.png'
p886
sI886
S'/Users/zhenzhenweng/Downloads/images/000005736.png'
p887
sI887
S'/Users/zhenzhenweng/Downloads/images/000003347.png'
p888
sI888
S'/Users/zhenzhenweng/Downloads/images/000004428.png'
p889
sI889
S'/Users/zhenzhenweng/Downloads/images/000000896.png'
p890
sI890
S'/Users/zhenzhenweng/Downloads/images/000001236.png'
p891
sI891
S'/Users/zhenzhenweng/Downloads/images/000004366.png'
p892
sI892
S'/Users/zhenzhenweng/Downloads/images/000004400.png'
p893
sI893
S'/Users/zhenzhenweng/Downloads/images/000000666.png'
p894
sI894
S'/Users/zhenzhenweng/Downloads/images/000000672.png'
p895
sI895
S'/Users/zhenzhenweng/Downloads/images/000004414.png'
p896
sI896
S'/Users/zhenzhenweng/Downloads/images/000004399.png'
p897
sI897
S'/Users/zhenzhenweng/Downloads/images/000000841.png'
p898
sI898
S'/Users/zhenzhenweng/Downloads/images/000000699.png'
p899
sI899
S'/Users/zhenzhenweng/Downloads/images/000000855.png'
p900
sI900
S'/Users/zhenzhenweng/Downloads/images/000005905.png'
p901
sI901
S'/Users/zhenzhenweng/Downloads/images/000005911.png'
p902
sI902
S'/Users/zhenzhenweng/Downloads/images/000000869.png'
p903
sI903
S'/Users/zhenzhenweng/Downloads/images/000001020.png'
p904
sI904
S'/Users/zhenzhenweng/Downloads/images/000001034.png'
p905
sI905
S'/Users/zhenzhenweng/Downloads/images/000003145.png'
p906
sI906
S'/Users/zhenzhenweng/Downloads/images/000001008.png'
p907
sI907
S'/Users/zhenzhenweng/Downloads/images/000001011.png'
p908
sI908
S'/Users/zhenzhenweng/Downloads/images/000001005.png'
p909
sI909
S'/Users/zhenzhenweng/Downloads/images/000001039.png'
p910
sI910
S'/Users/zhenzhenweng/Downloads/images/000003148.png'
p911
sI911
S'/Users/zhenzhenweng/Downloads/images/000000870.png'
p912
sI912
S'/Users/zhenzhenweng/Downloads/images/000005908.png'
p913
sI913
S'/Users/zhenzhenweng/Downloads/images/000000864.png'
p914
sI914
S'/Users/zhenzhenweng/Downloads/images/000004394.png'
p915
sI915
S'/Users/zhenzhenweng/Downloads/images/000000694.png'
p916
sI916
S'/Users/zhenzhenweng/Downloads/images/000000680.png'
p917
sI917
S'/Users/zhenzhenweng/Downloads/images/000000858.png'
p918
sI918
S'/Users/zhenzhenweng/Downloads/images/000005920.png'
p919
sI919
S'/Users/zhenzhenweng/Downloads/images/000004380.png'
p920
sI920
S'/Users/zhenzhenweng/Downloads/images/000001213.png'
p921
sI921
S'/Users/zhenzhenweng/Downloads/images/000005713.png'
p922
sI922
S'/Users/zhenzhenweng/Downloads/images/000004419.png'
p923
sI923
S'/Users/zhenzhenweng/Downloads/images/000005707.png'
p924
sI924
S'/Users/zhenzhenweng/Downloads/images/000001207.png'
p925
sI925
S'/Users/zhenzhenweng/Downloads/images/000004357.png'
p926
sI926
S'/Users/zhenzhenweng/Downloads/images/000000657.png'
p927
sI927
S'/Users/zhenzhenweng/Downloads/images/000004431.png'
p928
sI928
S'/Users/zhenzhenweng/Downloads/images/000004425.png'
p929
sI929
S'/Users/zhenzhenweng/Downloads/images/000000643.png'
p930
sI930
S'/Users/zhenzhenweng/Downloads/images/000000904.png'
p931
sI931
S'/Users/zhenzhenweng/Downloads/images/000005868.png'
p932
sI932
S'/Users/zhenzhenweng/Downloads/images/000000910.png'
p933
sI933
S'/Users/zhenzhenweng/Downloads/images/000001398.png'
p934
sI934
S'/Users/zhenzhenweng/Downloads/images/000004586.png'
p935
sI935
S'/Users/zhenzhenweng/Downloads/images/000005840.png'
p936
sI936
S'/Users/zhenzhenweng/Downloads/images/000005698.png'
p937
sI937
S'/Users/zhenzhenweng/Downloads/images/000000938.png'
p938
sI938
S'/Users/zhenzhenweng/Downloads/images/000006391.png'
p939
sI939
S'/Users/zhenzhenweng/Downloads/images/000006385.png'
p940
sI940
S'/Users/zhenzhenweng/Downloads/images/000005854.png'
p941
sI941
S'/Users/zhenzhenweng/Downloads/images/000001367.png'
p942
sI942
S'/Users/zhenzhenweng/Downloads/images/000004579.png'
p943
sI943
S'/Users/zhenzhenweng/Downloads/images/000003216.png'
p944
sI944
S'/Users/zhenzhenweng/Downloads/images/000001401.png'
p945
sI945
S'/Users/zhenzhenweng/Downloads/images/000001415.png'
p946
sI946
S'/Users/zhenzhenweng/Downloads/images/000003202.png'
p947
sI947
S'/Users/zhenzhenweng/Downloads/images/000001373.png'
p948
sI948
S'/Users/zhenzhenweng/Downloads/images/000000723.png'
p949
sI949
S'/Users/zhenzhenweng/Downloads/images/000006352.png'
p950
sI950
S'/Users/zhenzhenweng/Downloads/images/000004545.png'
p951
sI951
S'/Users/zhenzhenweng/Downloads/images/000005883.png'
p952
sI952
S'/Users/zhenzhenweng/Downloads/images/000004551.png'
p953
sI953
S'/Users/zhenzhenweng/Downloads/images/000005897.png'
p954
sI954
S'/Users/zhenzhenweng/Downloads/images/000000737.png'
p955
sI955
S'/Users/zhenzhenweng/Downloads/images/000006346.png'
p956
sI956
S'/Users/zhenzhenweng/Downloads/images/000001429.png'
p957
sI957
S'/Users/zhenzhenweng/Downloads/images/000001165.png'
p958
sI958
S'/Users/zhenzhenweng/Downloads/images/000001171.png'
p959
sI959
S'/Users/zhenzhenweng/Downloads/images/000000247.png'
p960
sI960
S'/Users/zhenzhenweng/Downloads/images/000001159.png'
p961
sI961
S'/Users/zhenzhenweng/Downloads/images/000000253.png'
p962
sI962
S'/Users/zhenzhenweng/Downloads/images/000000252.png'
p963
sI963
S'/Users/zhenzhenweng/Downloads/images/000001158.png'
p964
sI964
S'/Users/zhenzhenweng/Downloads/images/000000246.png'
p965
sI965
S'/Users/zhenzhenweng/Downloads/images/000001170.png'
p966
sI966
S'/Users/zhenzhenweng/Downloads/images/000001164.png'
p967
sI967
S'/Users/zhenzhenweng/Downloads/images/000001428.png'
p968
sI968
S'/Users/zhenzhenweng/Downloads/images/000006347.png'
p969
sI969
S'/Users/zhenzhenweng/Downloads/images/000000736.png'
p970
sI970
S'/Users/zhenzhenweng/Downloads/images/000005896.png'
p971
sI971
S'/Users/zhenzhenweng/Downloads/images/000004550.png'
p972
sI972
S'/Users/zhenzhenweng/Downloads/images/000005882.png'
p973
sI973
S'/Users/zhenzhenweng/Downloads/images/000004544.png'
p974
sI974
S'/Users/zhenzhenweng/Downloads/images/000006353.png'
p975
sI975
S'/Users/zhenzhenweng/Downloads/images/000000722.png'
p976
sI976
S'/Users/zhenzhenweng/Downloads/images/000003203.png'
p977
sI977
S'/Users/zhenzhenweng/Downloads/images/000001414.png'
p978
sI978
S'/Users/zhenzhenweng/Downloads/images/000001372.png'
p979
sI979
S'/Users/zhenzhenweng/Downloads/images/000001366.png'
p980
sI980
S'/Users/zhenzhenweng/Downloads/images/000001400.png'
p981
sI981
S'/Users/zhenzhenweng/Downloads/images/000003217.png'
p982
sI982
S'/Users/zhenzhenweng/Downloads/images/000004578.png'
p983
sI983
S'/Users/zhenzhenweng/Downloads/images/000005855.png'
p984
sI984
S'/Users/zhenzhenweng/Downloads/images/000006384.png'
p985
sI985
S'/Users/zhenzhenweng/Downloads/images/000001399.png'
p986
sI986
S'/Users/zhenzhenweng/Downloads/images/000006390.png'
p987
sI987
S'/Users/zhenzhenweng/Downloads/images/000000939.png'
p988
sI988
S'/Users/zhenzhenweng/Downloads/images/000005699.png'
p989
sI989
S'/Users/zhenzhenweng/Downloads/images/000005841.png'
p990
sI990
S'/Users/zhenzhenweng/Downloads/images/000004587.png'
p991
sI991
S'/Users/zhenzhenweng/Downloads/images/000000911.png'
p992
sI992
S'/Users/zhenzhenweng/Downloads/images/000005869.png'
p993
sI993
S'/Users/zhenzhenweng/Downloads/images/000000905.png'
p994
sI994
S'/Users/zhenzhenweng/Downloads/images/000000642.png'
p995
sI995
S'/Users/zhenzhenweng/Downloads/images/000004424.png'
p996
sI996
S'/Users/zhenzhenweng/Downloads/images/000004342.png'
p997
sI997
S'/Users/zhenzhenweng/Downloads/images/000004356.png'
p998
sI998
S'/Users/zhenzhenweng/Downloads/images/000004430.png'
p999
sI999
S'/Users/zhenzhenweng/Downloads/images/000000656.png'
p1000
sI1000
S'/Users/zhenzhenweng/Downloads/images/000005706.png'
p1001
sI1001
S'/Users/zhenzhenweng/Downloads/images/000004418.png'
p1002
sI1002
S'/Users/zhenzhenweng/Downloads/images/000001206.png'
p1003
sI1003
S'/Users/zhenzhenweng/Downloads/images/000001212.png'
p1004
sI1004
S'/Users/zhenzhenweng/Downloads/images/000005712.png'
p1005
sI1005
S'/Users/zhenzhenweng/Downloads/images/000005921.png'
p1006
sI1006
S'/Users/zhenzhenweng/Downloads/images/000000859.png'
p1007
sI1007
S'/Users/zhenzhenweng/Downloads/images/000000681.png'
p1008
sI1008
S'/Users/zhenzhenweng/Downloads/images/000004381.png'
p1009
sI1009
S'/Users/zhenzhenweng/Downloads/images/000004395.png'
p1010
sI1010
S'/Users/zhenzhenweng/Downloads/images/000000695.png'
p1011
sI1011
S'/Users/zhenzhenweng/Downloads/images/000000865.png'
p1012
sI1012
S'/Users/zhenzhenweng/Downloads/images/000005909.png'
p1013
sI1013
S'/Users/zhenzhenweng/Downloads/images/000000871.png'
p1014
sI1014
S'/Users/zhenzhenweng/Downloads/images/000001038.png'
p1015
sI1015
S'/Users/zhenzhenweng/Downloads/images/000003149.png'
p1016
sI1016
S'/Users/zhenzhenweng/Downloads/images/000001004.png'
p1017
sI1017
S'/Users/zhenzhenweng/Downloads/images/000001010.png'
p1018
sI1018
S'/Users/zhenzhenweng/Downloads/images/000001006.png'
p1019
sI1019
S'/Users/zhenzhenweng/Downloads/images/000001012.png'
p1020
sI1020
S'/Users/zhenzhenweng/Downloads/images/000000867.png'
p1021
sI1021
S'/Users/zhenzhenweng/Downloads/images/000000873.png'
p1022
sI1022
S'/Users/zhenzhenweng/Downloads/images/000004383.png'
p1023
sI1023
S'/Users/zhenzhenweng/Downloads/images/000000683.png'
p1024
sI1024
S'/Users/zhenzhenweng/Downloads/images/000005923.png'
p1025
sI1025
S'/Users/zhenzhenweng/Downloads/images/000000697.png'
p1026
sI1026
S'/Users/zhenzhenweng/Downloads/images/000004397.png'
p1027
sI1027
S'/Users/zhenzhenweng/Downloads/images/000001204.png'
p1028
sI1028
S'/Users/zhenzhenweng/Downloads/images/000005704.png'
p1029
sI1029
S'/Users/zhenzhenweng/Downloads/images/000005710.png'
p1030
sI1030
S'/Users/zhenzhenweng/Downloads/images/000000668.png'
p1031
sI1031
S'/Users/zhenzhenweng/Downloads/images/000001210.png'
p1032
sI1032
S'/Users/zhenzhenweng/Downloads/images/000004368.png'
p1033
sI1033
S'/Users/zhenzhenweng/Downloads/images/000001238.png'
p1034
sI1034
S'/Users/zhenzhenweng/Downloads/images/000004340.png'
p1035
sI1035
S'/Users/zhenzhenweng/Downloads/images/000003349.png'
p1036
sI1036
S'/Users/zhenzhenweng/Downloads/images/000004426.png'
p1037
sI1037
S'/Users/zhenzhenweng/Downloads/images/000005738.png'
p1038
sI1038
S'/Users/zhenzhenweng/Downloads/images/000000898.png'
p1039
sI1039
S'/Users/zhenzhenweng/Downloads/images/000000640.png'
p1040
sI1040
S'/Users/zhenzhenweng/Downloads/images/000000654.png'
p1041
sI1041
S'/Users/zhenzhenweng/Downloads/images/000004432.png'
p1042
sI1042
S'/Users/zhenzhenweng/Downloads/images/000004354.png'
p1043
sI1043
S'/Users/zhenzhenweng/Downloads/images/000000913.png'
p1044
sI1044
S'/Users/zhenzhenweng/Downloads/images/000000907.png'
p1045
sI1045
S'/Users/zhenzhenweng/Downloads/images/000006386.png'
p1046
sI1046
S'/Users/zhenzhenweng/Downloads/images/000005857.png'
p1047
sI1047
S'/Users/zhenzhenweng/Downloads/images/000004585.png'
p1048
sI1048
S'/Users/zhenzhenweng/Downloads/images/000005843.png'
p1049
sI1049
S'/Users/zhenzhenweng/Downloads/images/000006392.png'
p1050
sI1050
S'/Users/zhenzhenweng/Downloads/images/000001370.png'
p1051
sI1051
S'/Users/zhenzhenweng/Downloads/images/000000708.png'
p1052
sI1052
S'/Users/zhenzhenweng/Downloads/images/000006379.png'
p1053
sI1053
S'/Users/zhenzhenweng/Downloads/images/000001416.png'
p1054
sI1054
S'/Users/zhenzhenweng/Downloads/images/000003201.png'
p1055
sI1055
S'/Users/zhenzhenweng/Downloads/images/000003215.png'
p1056
sI1056
S'/Users/zhenzhenweng/Downloads/images/000001402.png'
p1057
sI1057
S'/Users/zhenzhenweng/Downloads/images/000001364.png'
p1058
sI1058
S'/Users/zhenzhenweng/Downloads/images/000004552.png'
p1059
sI1059
S'/Users/zhenzhenweng/Downloads/images/000005894.png'
p1060
sI1060
S'/Users/zhenzhenweng/Downloads/images/000000734.png'
p1061
sI1061
S'/Users/zhenzhenweng/Downloads/images/000006345.png'
p1062
sI1062
S'/Users/zhenzhenweng/Downloads/images/000000720.png'
p1063
sI1063
S'/Users/zhenzhenweng/Downloads/images/000006351.png'
p1064
sI1064
S'/Users/zhenzhenweng/Downloads/images/000004546.png'
p1065
sI1065
S'/Users/zhenzhenweng/Downloads/images/000003229.png'
p1066
sI1066
S'/Users/zhenzhenweng/Downloads/images/000005880.png'
p1067
sI1067
S'/Users/zhenzhenweng/Downloads/images/000001358.png'
p1068
sI1068
S'/Users/zhenzhenweng/Downloads/images/000001199.png'
p1069
sI1069
S'/Users/zhenzhenweng/Downloads/images/000001172.png'
p1070
sI1070
S'/Users/zhenzhenweng/Downloads/images/000001166.png'
p1071
sI1071
S'/Users/zhenzhenweng/Downloads/images/000000250.png'
p1072
sI1072
S'/Users/zhenzhenweng/Downloads/images/000000244.png'
p1073
sI1073
S'/Users/zhenzhenweng/Downloads/images/000000245.png'
p1074
sI1074
S'/Users/zhenzhenweng/Downloads/images/000000251.png'
p1075
sI1075
S'/Users/zhenzhenweng/Downloads/images/000001167.png'
p1076
sI1076
S'/Users/zhenzhenweng/Downloads/images/000001173.png'
p1077
sI1077
S'/Users/zhenzhenweng/Downloads/images/000001198.png'
p1078
sI1078
S'/Users/zhenzhenweng/Downloads/images/000005881.png'
p1079
sI1079
S'/Users/zhenzhenweng/Downloads/images/000003228.png'
p1080
sI1080
S'/Users/zhenzhenweng/Downloads/images/000004547.png'
p1081
sI1081
S'/Users/zhenzhenweng/Downloads/images/000006350.png'
p1082
sI1082
S'/Users/zhenzhenweng/Downloads/images/000000721.png'
p1083
sI1083
S'/Users/zhenzhenweng/Downloads/images/000001359.png'
p1084
sI1084
S'/Users/zhenzhenweng/Downloads/images/000006344.png'
p1085
sI1085
S'/Users/zhenzhenweng/Downloads/images/000000735.png'
p1086
sI1086
S'/Users/zhenzhenweng/Downloads/images/000005895.png'
p1087
sI1087
S'/Users/zhenzhenweng/Downloads/images/000004553.png'
p1088
sI1088
S'/Users/zhenzhenweng/Downloads/images/000001403.png'
p1089
sI1089
S'/Users/zhenzhenweng/Downloads/images/000003214.png'
p1090
sI1090
S'/Users/zhenzhenweng/Downloads/images/000001365.png'
p1091
sI1091
S'/Users/zhenzhenweng/Downloads/images/000001371.png'
p1092
sI1092
S'/Users/zhenzhenweng/Downloads/images/000003200.png'
p1093
sI1093
S'/Users/zhenzhenweng/Downloads/images/000001417.png'
p1094
sI1094
S'/Users/zhenzhenweng/Downloads/images/000006378.png'
p1095
sI1095
S'/Users/zhenzhenweng/Downloads/images/000000709.png'
p1096
sI1096
S'/Users/zhenzhenweng/Downloads/images/000006393.png'
p1097
sI1097
S'/Users/zhenzhenweng/Downloads/images/000005842.png'
p1098
sI1098
S'/Users/zhenzhenweng/Downloads/images/000004584.png'
p1099
sI1099
S'/Users/zhenzhenweng/Downloads/images/000005856.png'
p1100
sI1100
S'/Users/zhenzhenweng/Downloads/images/000006387.png'
p1101
sI1101
S'/Users/zhenzhenweng/Downloads/images/000000906.png'
p1102
sI1102
S'/Users/zhenzhenweng/Downloads/images/000000912.png'
p1103
sI1103
S'/Users/zhenzhenweng/Downloads/images/000004433.png'
p1104
sI1104
S'/Users/zhenzhenweng/Downloads/images/000000655.png'
p1105
sI1105
S'/Users/zhenzhenweng/Downloads/images/000004355.png'
p1106
sI1106
S'/Users/zhenzhenweng/Downloads/images/000004341.png'
p1107
sI1107
S'/Users/zhenzhenweng/Downloads/images/000001239.png'
p1108
sI1108
S'/Users/zhenzhenweng/Downloads/images/000000641.png'
p1109
sI1109
S'/Users/zhenzhenweng/Downloads/images/000000899.png'
p1110
sI1110
S'/Users/zhenzhenweng/Downloads/images/000005739.png'
p1111
sI1111
S'/Users/zhenzhenweng/Downloads/images/000004427.png'
p1112
sI1112
S'/Users/zhenzhenweng/Downloads/images/000003348.png'
p1113
sI1113
S'/Users/zhenzhenweng/Downloads/images/000000669.png'
p1114
sI1114
S'/Users/zhenzhenweng/Downloads/images/000005711.png'
p1115
sI1115
S'/Users/zhenzhenweng/Downloads/images/000004369.png'
p1116
sI1116
S'/Users/zhenzhenweng/Downloads/images/000001211.png'
p1117
sI1117
S'/Users/zhenzhenweng/Downloads/images/000001205.png'
p1118
sI1118
S'/Users/zhenzhenweng/Downloads/images/000005705.png'
p1119
sI1119
S'/Users/zhenzhenweng/Downloads/images/000000696.png'
p1120
sI1120
S'/Users/zhenzhenweng/Downloads/images/000004396.png'
p1121
sI1121
S'/Users/zhenzhenweng/Downloads/images/000004382.png'
p1122
sI1122
S'/Users/zhenzhenweng/Downloads/images/000005922.png'
p1123
sI1123
S'/Users/zhenzhenweng/Downloads/images/000000682.png'
p1124
sI1124
S'/Users/zhenzhenweng/Downloads/images/000000872.png'
p1125
sI1125
S'/Users/zhenzhenweng/Downloads/images/000000866.png'
p1126
sI1126
S'/Users/zhenzhenweng/Downloads/images/000001013.png'
p1127
sI1127
S'/Users/zhenzhenweng/Downloads/images/000001007.png'
p1128
sI1128
S'/Users/zhenzhenweng/Downloads/images/000003199.png'
p1129
sI1129
S'/Users/zhenzhenweng/Downloads/images/000001003.png'
p1130
sI1130
S'/Users/zhenzhenweng/Downloads/images/000001017.png'
p1131
sI1131
S'/Users/zhenzhenweng/Downloads/images/000000686.png'
p1132
sI1132
S'/Users/zhenzhenweng/Downloads/images/000005926.png'
p1133
sI1133
S'/Users/zhenzhenweng/Downloads/images/000004386.png'
p1134
sI1134
S'/Users/zhenzhenweng/Downloads/images/000004392.png'
p1135
sI1135
S'/Users/zhenzhenweng/Downloads/images/000000692.png'
p1136
sI1136
S'/Users/zhenzhenweng/Downloads/images/000000862.png'
p1137
sI1137
S'/Users/zhenzhenweng/Downloads/images/000000876.png'
p1138
sI1138
S'/Users/zhenzhenweng/Downloads/images/000004423.png'
p1139
sI1139
S'/Users/zhenzhenweng/Downloads/images/000000645.png'
p1140
sI1140
S'/Users/zhenzhenweng/Downloads/images/000004351.png'
p1141
sI1141
S'/Users/zhenzhenweng/Downloads/images/000001229.png'
p1142
sI1142
S'/Users/zhenzhenweng/Downloads/images/000000889.png'
p1143
sI1143
S'/Users/zhenzhenweng/Downloads/images/000000651.png'
p1144
sI1144
S'/Users/zhenzhenweng/Downloads/images/000004437.png'
p1145
sI1145
S'/Users/zhenzhenweng/Downloads/images/000005729.png'
p1146
sI1146
S'/Users/zhenzhenweng/Downloads/images/000000679.png'
p1147
sI1147
S'/Users/zhenzhenweng/Downloads/images/000005701.png'
p1148
sI1148
S'/Users/zhenzhenweng/Downloads/images/000004379.png'
p1149
sI1149
S'/Users/zhenzhenweng/Downloads/images/000001201.png'
p1150
sI1150
S'/Users/zhenzhenweng/Downloads/images/000001215.png'
p1151
sI1151
S'/Users/zhenzhenweng/Downloads/images/000005715.png'
p1152
sI1152
S'/Users/zhenzhenweng/Downloads/images/000006383.png'
p1153
sI1153
S'/Users/zhenzhenweng/Downloads/images/000005852.png'
p1154
sI1154
S'/Users/zhenzhenweng/Downloads/images/000005846.png'
p1155
sI1155
S'/Users/zhenzhenweng/Downloads/images/000004580.png'
p1156
sI1156
S'/Users/zhenzhenweng/Downloads/images/000000916.png'
p1157
sI1157
S'/Users/zhenzhenweng/Downloads/images/000000902.png'
p1158
sI1158
S'/Users/zhenzhenweng/Downloads/images/000003238.png'
p1159
sI1159
S'/Users/zhenzhenweng/Downloads/images/000005891.png'
p1160
sI1160
S'/Users/zhenzhenweng/Downloads/images/000004557.png'
p1161
sI1161
S'/Users/zhenzhenweng/Downloads/images/000000731.png'
p1162
sI1162
S'/Users/zhenzhenweng/Downloads/images/000006340.png'
p1163
sI1163
S'/Users/zhenzhenweng/Downloads/images/000001349.png'
p1164
sI1164
S'/Users/zhenzhenweng/Downloads/images/000000725.png'
p1165
sI1165
S'/Users/zhenzhenweng/Downloads/images/000006354.png'
p1166
sI1166
S'/Users/zhenzhenweng/Downloads/images/000005885.png'
p1167
sI1167
S'/Users/zhenzhenweng/Downloads/images/000004543.png'
p1168
sI1168
S'/Users/zhenzhenweng/Downloads/images/000001413.png'
p1169
sI1169
S'/Users/zhenzhenweng/Downloads/images/000003204.png'
p1170
sI1170
S'/Users/zhenzhenweng/Downloads/images/000001375.png'
p1171
sI1171
S'/Users/zhenzhenweng/Downloads/images/000001361.png'
p1172
sI1172
S'/Users/zhenzhenweng/Downloads/images/000003210.png'
p1173
sI1173
S'/Users/zhenzhenweng/Downloads/images/000000719.png'
p1174
sI1174
S'/Users/zhenzhenweng/Downloads/images/000001407.png'
p1175
sI1175
S'/Users/zhenzhenweng/Downloads/images/000006368.png'
p1176
sI1176
S'/Users/zhenzhenweng/Downloads/images/000001188.png'
p1177
sI1177
S'/Users/zhenzhenweng/Downloads/images/000000255.png'
p1178
sI1178
S'/Users/zhenzhenweng/Downloads/images/000000241.png'
p1179
sI1179
S'/Users/zhenzhenweng/Downloads/images/000001177.png'
p1180
sI1180
S'/Users/zhenzhenweng/Downloads/images/000001163.png'
p1181
sI1181
S'/Users/zhenzhenweng/Downloads/images/000001162.png'
p1182
sI1182
S'/Users/zhenzhenweng/Downloads/images/000001176.png'
p1183
sI1183
S'/Users/zhenzhenweng/Downloads/images/000000240.png'
p1184
sI1184
S'/Users/zhenzhenweng/Downloads/images/000000254.png'
p1185
sI1185
S'/Users/zhenzhenweng/Downloads/images/000001189.png'
p1186
sI1186
S'/Users/zhenzhenweng/Downloads/images/000001360.png'
p1187
sI1187
S'/Users/zhenzhenweng/Downloads/images/000006369.png'
p1188
sI1188
S'/Users/zhenzhenweng/Downloads/images/000001406.png'
p1189
sI1189
S'/Users/zhenzhenweng/Downloads/images/000000718.png'
p1190
sI1190
S'/Users/zhenzhenweng/Downloads/images/000003211.png'
p1191
sI1191
S'/Users/zhenzhenweng/Downloads/images/000003205.png'
p1192
sI1192
S'/Users/zhenzhenweng/Downloads/images/000001412.png'
p1193
sI1193
S'/Users/zhenzhenweng/Downloads/images/000001374.png'
p1194
sI1194
S'/Users/zhenzhenweng/Downloads/images/000004542.png'
p1195
sI1195
S'/Users/zhenzhenweng/Downloads/images/000005884.png'
p1196
sI1196
S'/Users/zhenzhenweng/Downloads/images/000006355.png'
p1197
sI1197
S'/Users/zhenzhenweng/Downloads/images/000000724.png'
p1198
sI1198
S'/Users/zhenzhenweng/Downloads/images/000006341.png'
p1199
sI1199
S'/Users/zhenzhenweng/Downloads/images/000000730.png'
p1200
sI1200
S'/Users/zhenzhenweng/Downloads/images/000004556.png'
p1201
sI1201
S'/Users/zhenzhenweng/Downloads/images/000005890.png'
p1202
sI1202
S'/Users/zhenzhenweng/Downloads/images/000003239.png'
p1203
sI1203
S'/Users/zhenzhenweng/Downloads/images/000001348.png'
p1204
sI1204
S'/Users/zhenzhenweng/Downloads/images/000000903.png'
p1205
sI1205
S'/Users/zhenzhenweng/Downloads/images/000000917.png'
p1206
sI1206
S'/Users/zhenzhenweng/Downloads/images/000004581.png'
p1207
sI1207
S'/Users/zhenzhenweng/Downloads/images/000005847.png'
p1208
sI1208
S'/Users/zhenzhenweng/Downloads/images/000005853.png'
p1209
sI1209
S'/Users/zhenzhenweng/Downloads/images/000006382.png'
p1210
sI1210
S'/Users/zhenzhenweng/Downloads/images/000001214.png'
p1211
sI1211
S'/Users/zhenzhenweng/Downloads/images/000005714.png'
p1212
sI1212
S'/Users/zhenzhenweng/Downloads/images/000005700.png'
p1213
sI1213
S'/Users/zhenzhenweng/Downloads/images/000000678.png'
p1214
sI1214
S'/Users/zhenzhenweng/Downloads/images/000001200.png'
p1215
sI1215
S'/Users/zhenzhenweng/Downloads/images/000004378.png'
p1216
sI1216
S'/Users/zhenzhenweng/Downloads/images/000001228.png'
p1217
sI1217
S'/Users/zhenzhenweng/Downloads/images/000004350.png'
p1218
sI1218
S'/Users/zhenzhenweng/Downloads/images/000005728.png'
p1219
sI1219
S'/Users/zhenzhenweng/Downloads/images/000004436.png'
p1220
sI1220
S'/Users/zhenzhenweng/Downloads/images/000000650.png'
p1221
sI1221
S'/Users/zhenzhenweng/Downloads/images/000000888.png'
p1222
sI1222
S'/Users/zhenzhenweng/Downloads/images/000000644.png'
p1223
sI1223
S'/Users/zhenzhenweng/Downloads/images/000004422.png'
p1224
sI1224
S'/Users/zhenzhenweng/Downloads/images/000000877.png'
p1225
sI1225
S'/Users/zhenzhenweng/Downloads/images/000000863.png'
p1226
sI1226
S'/Users/zhenzhenweng/Downloads/images/000004393.png'
p1227
sI1227
S'/Users/zhenzhenweng/Downloads/images/000000693.png'
p1228
sI1228
S'/Users/zhenzhenweng/Downloads/images/000005927.png'
p1229
sI1229
S'/Users/zhenzhenweng/Downloads/images/000000687.png'
p1230
sI1230
S'/Users/zhenzhenweng/Downloads/images/000004387.png'
p1231
sI1231
S'/Users/zhenzhenweng/Downloads/images/000001016.png'
p1232
sI1232
S'/Users/zhenzhenweng/Downloads/images/000001002.png'
p1233
sI1233
S'/Users/zhenzhenweng/Downloads/images/000003198.png'
p1234
sI1234
S'/Users/zhenzhenweng/Downloads/images/000001028.png'
p1235
sI1235
S'/Users/zhenzhenweng/Downloads/images/000001014.png'
p1236
sI1236
S'/Users/zhenzhenweng/Downloads/images/000001000.png'
p1237
sI1237
S'/Users/zhenzhenweng/Downloads/images/000000691.png'
p1238
sI1238
S'/Users/zhenzhenweng/Downloads/images/000000849.png'
p1239
sI1239
S'/Users/zhenzhenweng/Downloads/images/000004391.png'
p1240
sI1240
S'/Users/zhenzhenweng/Downloads/images/000004385.png'
p1241
sI1241
S'/Users/zhenzhenweng/Downloads/images/000000685.png'
p1242
sI1242
S'/Users/zhenzhenweng/Downloads/images/000005925.png'
p1243
sI1243
S'/Users/zhenzhenweng/Downloads/images/000000875.png'
p1244
sI1244
S'/Users/zhenzhenweng/Downloads/images/000005919.png'
p1245
sI1245
S'/Users/zhenzhenweng/Downloads/images/000000861.png'
p1246
sI1246
S'/Users/zhenzhenweng/Downloads/images/000000652.png'
p1247
sI1247
S'/Users/zhenzhenweng/Downloads/images/000004434.png'
p1248
sI1248
S'/Users/zhenzhenweng/Downloads/images/000004352.png'
p1249
sI1249
S'/Users/zhenzhenweng/Downloads/images/000004420.png'
p1250
sI1250
S'/Users/zhenzhenweng/Downloads/images/000000646.png'
p1251
sI1251
S'/Users/zhenzhenweng/Downloads/images/000004408.png'
p1252
sI1252
S'/Users/zhenzhenweng/Downloads/images/000005716.png'
p1253
sI1253
S'/Users/zhenzhenweng/Downloads/images/000001216.png'
p1254
sI1254
S'/Users/zhenzhenweng/Downloads/images/000001202.png'
p1255
sI1255
S'/Users/zhenzhenweng/Downloads/images/000005702.png'
p1256
sI1256
S'/Users/zhenzhenweng/Downloads/images/000005845.png'
p1257
sI1257
S'/Users/zhenzhenweng/Downloads/images/000004583.png'
p1258
sI1258
S'/Users/zhenzhenweng/Downloads/images/000006394.png'
p1259
sI1259
S'/Users/zhenzhenweng/Downloads/images/000001389.png'
p1260
sI1260
S'/Users/zhenzhenweng/Downloads/images/000000929.png'
p1261
sI1261
S'/Users/zhenzhenweng/Downloads/images/000006380.png'
p1262
sI1262
S'/Users/zhenzhenweng/Downloads/images/000005851.png'
p1263
sI1263
S'/Users/zhenzhenweng/Downloads/images/000005689.png'
p1264
sI1264
S'/Users/zhenzhenweng/Downloads/images/000000901.png'
p1265
sI1265
S'/Users/zhenzhenweng/Downloads/images/000005879.png'
p1266
sI1266
S'/Users/zhenzhenweng/Downloads/images/000000915.png'
p1267
sI1267
S'/Users/zhenzhenweng/Downloads/images/000000726.png'
p1268
sI1268
S'/Users/zhenzhenweng/Downloads/images/000001438.png'
p1269
sI1269
S'/Users/zhenzhenweng/Downloads/images/000006357.png'
p1270
sI1270
S'/Users/zhenzhenweng/Downloads/images/000005886.png'
p1271
sI1271
S'/Users/zhenzhenweng/Downloads/images/000004540.png'
p1272
sI1272
S'/Users/zhenzhenweng/Downloads/images/000005892.png'
p1273
sI1273
S'/Users/zhenzhenweng/Downloads/images/000004554.png'
p1274
sI1274
S'/Users/zhenzhenweng/Downloads/images/000000732.png'
p1275
sI1275
S'/Users/zhenzhenweng/Downloads/images/000006343.png'
p1276
sI1276
S'/Users/zhenzhenweng/Downloads/images/000003213.png'
p1277
sI1277
S'/Users/zhenzhenweng/Downloads/images/000001404.png'
p1278
sI1278
S'/Users/zhenzhenweng/Downloads/images/000001362.png'
p1279
sI1279
S'/Users/zhenzhenweng/Downloads/images/000001376.png'
p1280
sI1280
S'/Users/zhenzhenweng/Downloads/images/000001410.png'
p1281
sI1281
S'/Users/zhenzhenweng/Downloads/images/000003207.png'
p1282
sI1282
S'/Users/zhenzhenweng/Downloads/images/000004568.png'
p1283
sI1283
S'/Users/zhenzhenweng/Downloads/images/000000242.png'
p1284
sI1284
S'/Users/zhenzhenweng/Downloads/images/000000256.png'
p1285
sI1285
S'/Users/zhenzhenweng/Downloads/images/000001148.png'
p1286
sI1286
S'/Users/zhenzhenweng/Downloads/images/000001160.png'
p1287
sI1287
S'/Users/zhenzhenweng/Downloads/images/000001174.png'
p1288
sI1288
S'/Users/zhenzhenweng/Downloads/images/000001175.png'
p1289
sI1289
S'/Users/zhenzhenweng/Downloads/images/000001161.png'
p1290
sI1290
S'/Users/zhenzhenweng/Downloads/images/000001149.png'
p1291
sI1291
S'/Users/zhenzhenweng/Downloads/images/000000257.png'
p1292
sI1292
S'/Users/zhenzhenweng/Downloads/images/000000243.png'
p1293
sI1293
S'/Users/zhenzhenweng/Downloads/images/000001377.png'
p1294
sI1294
S'/Users/zhenzhenweng/Downloads/images/000004569.png'
p1295
sI1295
S'/Users/zhenzhenweng/Downloads/images/000003206.png'
p1296
sI1296
S'/Users/zhenzhenweng/Downloads/images/000001411.png'
p1297
sI1297
S'/Users/zhenzhenweng/Downloads/images/000001405.png'
p1298
sI1298
S'/Users/zhenzhenweng/Downloads/images/000003212.png'
p1299
sI1299
S'/Users/zhenzhenweng/Downloads/images/000001363.png'
p1300
sI1300
S'/Users/zhenzhenweng/Downloads/images/000006342.png'
p1301
sI1301
S'/Users/zhenzhenweng/Downloads/images/000000733.png'
p1302
sI1302
S'/Users/zhenzhenweng/Downloads/images/000004555.png'
p1303
sI1303
S'/Users/zhenzhenweng/Downloads/images/000005893.png'
p1304
sI1304
S'/Users/zhenzhenweng/Downloads/images/000004541.png'
p1305
sI1305
S'/Users/zhenzhenweng/Downloads/images/000005887.png'
p1306
sI1306
S'/Users/zhenzhenweng/Downloads/images/000006356.png'
p1307
sI1307
S'/Users/zhenzhenweng/Downloads/images/000000727.png'
p1308
sI1308
S'/Users/zhenzhenweng/Downloads/images/000000914.png'
p1309
sI1309
S'/Users/zhenzhenweng/Downloads/images/000005878.png'
p1310
sI1310
S'/Users/zhenzhenweng/Downloads/images/000000900.png'
p1311
sI1311
S'/Users/zhenzhenweng/Downloads/images/000001388.png'
p1312
sI1312
S'/Users/zhenzhenweng/Downloads/images/000005688.png'
p1313
sI1313
S'/Users/zhenzhenweng/Downloads/images/000005850.png'
p1314
sI1314
S'/Users/zhenzhenweng/Downloads/images/000006381.png'
p1315
sI1315
S'/Users/zhenzhenweng/Downloads/images/000000928.png'
p1316
sI1316
S'/Users/zhenzhenweng/Downloads/images/000006395.png'
p1317
sI1317
S'/Users/zhenzhenweng/Downloads/images/000004582.png'
p1318
sI1318
S'/Users/zhenzhenweng/Downloads/images/000005844.png'
p1319
sI1319
S'/Users/zhenzhenweng/Downloads/images/000001203.png'
p1320
sI1320
S'/Users/zhenzhenweng/Downloads/images/000005703.png'
p1321
sI1321
S'/Users/zhenzhenweng/Downloads/images/000005717.png'
p1322
sI1322
S'/Users/zhenzhenweng/Downloads/images/000004409.png'
p1323
sI1323
S'/Users/zhenzhenweng/Downloads/images/000001217.png'
p1324
sI1324
S'/Users/zhenzhenweng/Downloads/images/000000647.png'
p1325
sI1325
S'/Users/zhenzhenweng/Downloads/images/000004421.png'
p1326
sI1326
S'/Users/zhenzhenweng/Downloads/images/000004435.png'
p1327
sI1327
S'/Users/zhenzhenweng/Downloads/images/000000653.png'
p1328
sI1328
S'/Users/zhenzhenweng/Downloads/images/000004353.png'
p1329
sI1329
S'/Users/zhenzhenweng/Downloads/images/000000860.png'
p1330
sI1330
S'/Users/zhenzhenweng/Downloads/images/000005918.png'
p1331
sI1331
S'/Users/zhenzhenweng/Downloads/images/000000874.png'
p1332
sI1332
S'/Users/zhenzhenweng/Downloads/images/000004384.png'
p1333
sI1333
S'/Users/zhenzhenweng/Downloads/images/000005924.png'
p1334
sI1334
S'/Users/zhenzhenweng/Downloads/images/000000684.png'
p1335
sI1335
S'/Users/zhenzhenweng/Downloads/images/000000848.png'
p1336
sI1336
S'/Users/zhenzhenweng/Downloads/images/000000690.png'
p1337
sI1337
S'/Users/zhenzhenweng/Downloads/images/000004390.png'
p1338
sI1338
S'/Users/zhenzhenweng/Downloads/images/000001001.png'
p1339
sI1339
S'/Users/zhenzhenweng/Downloads/images/000001015.png'
p1340
sI1340
S'/Users/zhenzhenweng/Downloads/images/000001029.png'
p1341
sI1341
S'/Users/zhenzhenweng/Downloads/images/000001099.png'
p1342
sI1342
S'/Users/zhenzhenweng/Downloads/images/000001072.png'
p1343
sI1343
S'/Users/zhenzhenweng/Downloads/images/000003103.png'
p1344
sI1344
S'/Users/zhenzhenweng/Downloads/images/000003117.png'
p1345
sI1345
S'/Users/zhenzhenweng/Downloads/images/000001066.png'
p1346
sI1346
S'/Users/zhenzhenweng/Downloads/images/000000813.png'
p1347
sI1347
S'/Users/zhenzhenweng/Downloads/images/000000807.png'
p1348
sI1348
S'/Users/zhenzhenweng/Downloads/images/000006286.png'
p1349
sI1349
S'/Users/zhenzhenweng/Downloads/images/000004491.png'
p1350
sI1350
S'/Users/zhenzhenweng/Downloads/images/000004485.png'
p1351
sI1351
S'/Users/zhenzhenweng/Downloads/images/000006292.png'
p1352
sI1352
S'/Users/zhenzhenweng/Downloads/images/000000608.png'
p1353
sI1353
S'/Users/zhenzhenweng/Downloads/images/000003301.png'
p1354
sI1354
S'/Users/zhenzhenweng/Downloads/images/000005770.png'
p1355
sI1355
S'/Users/zhenzhenweng/Downloads/images/000001270.png'
p1356
sI1356
S'/Users/zhenzhenweng/Downloads/images/000001264.png'
p1357
sI1357
S'/Users/zhenzhenweng/Downloads/images/000003315.png'
p1358
sI1358
S'/Users/zhenzhenweng/Downloads/images/000005764.png'
p1359
sI1359
S'/Users/zhenzhenweng/Downloads/images/000004452.png'
p1360
sI1360
S'/Users/zhenzhenweng/Downloads/images/000000634.png'
p1361
sI1361
S'/Users/zhenzhenweng/Downloads/images/000004334.png'
p1362
sI1362
S'/Users/zhenzhenweng/Downloads/images/000004320.png'
p1363
sI1363
S'/Users/zhenzhenweng/Downloads/images/000001258.png'
p1364
sI1364
S'/Users/zhenzhenweng/Downloads/images/000000620.png'
p1365
sI1365
S'/Users/zhenzhenweng/Downloads/images/000003329.png'
p1366
sI1366
S'/Users/zhenzhenweng/Downloads/images/000004446.png'
p1367
sI1367
S'/Users/zhenzhenweng/Downloads/images/000005758.png'
p1368
sI1368
S'/Users/zhenzhenweng/Downloads/images/000000967.png'
p1369
sI1369
S'/Users/zhenzhenweng/Downloads/images/000000973.png'
p1370
sI1370
S'/Users/zhenzhenweng/Downloads/images/000000783.png'
p1371
sI1371
S'/Users/zhenzhenweng/Downloads/images/000005823.png'
p1372
sI1372
S'/Users/zhenzhenweng/Downloads/images/000005837.png'
p1373
sI1373
S'/Users/zhenzhenweng/Downloads/images/000000797.png'
p1374
sI1374
S'/Users/zhenzhenweng/Downloads/images/000003275.png'
p1375
sI1375
S'/Users/zhenzhenweng/Downloads/images/000001304.png'
p1376
sI1376
S'/Users/zhenzhenweng/Downloads/images/000001310.png'
p1377
sI1377
S'/Users/zhenzhenweng/Downloads/images/000003261.png'
p1378
sI1378
S'/Users/zhenzhenweng/Downloads/images/000000768.png'
p1379
sI1379
S'/Users/zhenzhenweng/Downloads/images/000006319.png'
p1380
sI1380
S'/Users/zhenzhenweng/Downloads/images/000004526.png'
p1381
sI1381
S'/Users/zhenzhenweng/Downloads/images/000003249.png'
p1382
sI1382
S'/Users/zhenzhenweng/Downloads/images/000000740.png'
p1383
sI1383
S'/Users/zhenzhenweng/Downloads/images/000006331.png'
p1384
sI1384
S'/Users/zhenzhenweng/Downloads/images/000000998.png'
p1385
sI1385
S'/Users/zhenzhenweng/Downloads/images/000001338.png'
p1386
sI1386
S'/Users/zhenzhenweng/Downloads/images/000000754.png'
p1387
sI1387
S'/Users/zhenzhenweng/Downloads/images/000006325.png'
p1388
sI1388
S'/Users/zhenzhenweng/Downloads/images/000004532.png'
p1389
sI1389
S'/Users/zhenzhenweng/Downloads/images/000003088.png'
p1390
sI1390
S'/Users/zhenzhenweng/Downloads/images/000000581.png'
p1391
sI1391
S'/Users/zhenzhenweng/Downloads/images/000000595.png'
p1392
sI1392
S'/Users/zhenzhenweng/Downloads/images/000001106.png'
p1393
sI1393
S'/Users/zhenzhenweng/Downloads/images/000003077.png'
p1394
sI1394
S'/Users/zhenzhenweng/Downloads/images/000001112.png'
p1395
sI1395
S'/Users/zhenzhenweng/Downloads/images/000000556.png'
p1396
sI1396
S'/Users/zhenzhenweng/Downloads/images/000000557.png'
p1397
sI1397
S'/Users/zhenzhenweng/Downloads/images/000001113.png'
p1398
sI1398
S'/Users/zhenzhenweng/Downloads/images/000001107.png'
p1399
sI1399
S'/Users/zhenzhenweng/Downloads/images/000003076.png'
p1400
sI1400
S'/Users/zhenzhenweng/Downloads/images/000000594.png'
p1401
sI1401
S'/Users/zhenzhenweng/Downloads/images/000000580.png'
p1402
sI1402
S'/Users/zhenzhenweng/Downloads/images/000003089.png'
p1403
sI1403
S'/Users/zhenzhenweng/Downloads/images/000004533.png'
p1404
sI1404
S'/Users/zhenzhenweng/Downloads/images/000006324.png'
p1405
sI1405
S'/Users/zhenzhenweng/Downloads/images/000000755.png'
p1406
sI1406
S'/Users/zhenzhenweng/Downloads/images/000000999.png'
p1407
sI1407
S'/Users/zhenzhenweng/Downloads/images/000006330.png'
p1408
sI1408
S'/Users/zhenzhenweng/Downloads/images/000000741.png'
p1409
sI1409
S'/Users/zhenzhenweng/Downloads/images/000003248.png'
p1410
sI1410
S'/Users/zhenzhenweng/Downloads/images/000004527.png'
p1411
sI1411
S'/Users/zhenzhenweng/Downloads/images/000001339.png'
p1412
sI1412
S'/Users/zhenzhenweng/Downloads/images/000001311.png'
p1413
sI1413
S'/Users/zhenzhenweng/Downloads/images/000006318.png'
p1414
sI1414
S'/Users/zhenzhenweng/Downloads/images/000000769.png'
p1415
sI1415
S'/Users/zhenzhenweng/Downloads/images/000003260.png'
p1416
sI1416
S'/Users/zhenzhenweng/Downloads/images/000003274.png'
p1417
sI1417
S'/Users/zhenzhenweng/Downloads/images/000001305.png'
p1418
sI1418
S'/Users/zhenzhenweng/Downloads/images/000000796.png'
p1419
sI1419
S'/Users/zhenzhenweng/Downloads/images/000005836.png'
p1420
sI1420
S'/Users/zhenzhenweng/Downloads/images/000005822.png'
p1421
sI1421
S'/Users/zhenzhenweng/Downloads/images/000000782.png'
p1422
sI1422
S'/Users/zhenzhenweng/Downloads/images/000000972.png'
p1423
sI1423
S'/Users/zhenzhenweng/Downloads/images/000000966.png'
p1424
sI1424
S'/Users/zhenzhenweng/Downloads/images/000001259.png'
p1425
sI1425
S'/Users/zhenzhenweng/Downloads/images/000004321.png'
p1426
sI1426
S'/Users/zhenzhenweng/Downloads/images/000005759.png'
p1427
sI1427
S'/Users/zhenzhenweng/Downloads/images/000004447.png'
p1428
sI1428
S'/Users/zhenzhenweng/Downloads/images/000003328.png'
p1429
sI1429
S'/Users/zhenzhenweng/Downloads/images/000000621.png'
p1430
sI1430
S'/Users/zhenzhenweng/Downloads/images/000000635.png'
p1431
sI1431
S'/Users/zhenzhenweng/Downloads/images/000004453.png'
p1432
sI1432
S'/Users/zhenzhenweng/Downloads/images/000004335.png'
p1433
sI1433
S'/Users/zhenzhenweng/Downloads/images/000001265.png'
p1434
sI1434
S'/Users/zhenzhenweng/Downloads/images/000005765.png'
p1435
sI1435
S'/Users/zhenzhenweng/Downloads/images/000003314.png'
p1436
sI1436
S'/Users/zhenzhenweng/Downloads/images/000005771.png'
p1437
sI1437
S'/Users/zhenzhenweng/Downloads/images/000003300.png'
p1438
sI1438
S'/Users/zhenzhenweng/Downloads/images/000000609.png'
p1439
sI1439
S'/Users/zhenzhenweng/Downloads/images/000001271.png'
p1440
sI1440
S'/Users/zhenzhenweng/Downloads/images/000006293.png'
p1441
sI1441
S'/Users/zhenzhenweng/Downloads/images/000004484.png'
p1442
sI1442
S'/Users/zhenzhenweng/Downloads/images/000004490.png'
p1443
sI1443
S'/Users/zhenzhenweng/Downloads/images/000006287.png'
p1444
sI1444
S'/Users/zhenzhenweng/Downloads/images/000000806.png'
p1445
sI1445
S'/Users/zhenzhenweng/Downloads/images/000000812.png'
p1446
sI1446
S'/Users/zhenzhenweng/Downloads/images/000003116.png'
p1447
sI1447
S'/Users/zhenzhenweng/Downloads/images/000001067.png'
p1448
sI1448
S'/Users/zhenzhenweng/Downloads/images/000001073.png'
p1449
sI1449
S'/Users/zhenzhenweng/Downloads/images/000003102.png'
p1450
sI1450
S'/Users/zhenzhenweng/Downloads/images/000001098.png'
p1451
sI1451
S'/Users/zhenzhenweng/Downloads/images/000001065.png'
p1452
sI1452
S'/Users/zhenzhenweng/Downloads/images/000003114.png'
p1453
sI1453
S'/Users/zhenzhenweng/Downloads/images/000003100.png'
p1454
sI1454
S'/Users/zhenzhenweng/Downloads/images/000001071.png'
p1455
sI1455
S'/Users/zhenzhenweng/Downloads/images/000001059.png'
p1456
sI1456
S'/Users/zhenzhenweng/Downloads/images/000003128.png'
p1457
sI1457
S'/Users/zhenzhenweng/Downloads/images/000000804.png'
p1458
sI1458
S'/Users/zhenzhenweng/Downloads/images/000000810.png'
p1459
sI1459
S'/Users/zhenzhenweng/Downloads/images/000005798.png'
p1460
sI1460
S'/Users/zhenzhenweng/Downloads/images/000004486.png'
p1461
sI1461
S'/Users/zhenzhenweng/Downloads/images/000000838.png'
p1462
sI1462
S'/Users/zhenzhenweng/Downloads/images/000006291.png'
p1463
sI1463
S'/Users/zhenzhenweng/Downloads/images/000001298.png'
p1464
sI1464
S'/Users/zhenzhenweng/Downloads/images/000006285.png'
p1465
sI1465
S'/Users/zhenzhenweng/Downloads/images/000004492.png'
p1466
sI1466
S'/Users/zhenzhenweng/Downloads/images/000003316.png'
p1467
sI1467
S'/Users/zhenzhenweng/Downloads/images/000004479.png'
p1468
sI1468
S'/Users/zhenzhenweng/Downloads/images/000005767.png'
p1469
sI1469
S'/Users/zhenzhenweng/Downloads/images/000001267.png'
p1470
sI1470
S'/Users/zhenzhenweng/Downloads/images/000001273.png'
p1471
sI1471
S'/Users/zhenzhenweng/Downloads/images/000003302.png'
p1472
sI1472
S'/Users/zhenzhenweng/Downloads/images/000005773.png'
p1473
sI1473
S'/Users/zhenzhenweng/Downloads/images/000000623.png'
p1474
sI1474
S'/Users/zhenzhenweng/Downloads/images/000004445.png'
p1475
sI1475
S'/Users/zhenzhenweng/Downloads/images/000004323.png'
p1476
sI1476
S'/Users/zhenzhenweng/Downloads/images/000004337.png'
p1477
sI1477
S'/Users/zhenzhenweng/Downloads/images/000004451.png'
p1478
sI1478
S'/Users/zhenzhenweng/Downloads/images/000000637.png'
p1479
sI1479
S'/Users/zhenzhenweng/Downloads/images/000000970.png'
p1480
sI1480
S'/Users/zhenzhenweng/Downloads/images/000005808.png'
p1481
sI1481
S'/Users/zhenzhenweng/Downloads/images/000000964.png'
p1482
sI1482
S'/Users/zhenzhenweng/Downloads/images/000005834.png'
p1483
sI1483
S'/Users/zhenzhenweng/Downloads/images/000000794.png'
p1484
sI1484
S'/Users/zhenzhenweng/Downloads/images/000000958.png'
p1485
sI1485
S'/Users/zhenzhenweng/Downloads/images/000000780.png'
p1486
sI1486
S'/Users/zhenzhenweng/Downloads/images/000005820.png'
p1487
sI1487
S'/Users/zhenzhenweng/Downloads/images/000003289.png'
p1488
sI1488
S'/Users/zhenzhenweng/Downloads/images/000003262.png'
p1489
sI1489
S'/Users/zhenzhenweng/Downloads/images/000001313.png'
p1490
sI1490
S'/Users/zhenzhenweng/Downloads/images/000001307.png'
p1491
sI1491
S'/Users/zhenzhenweng/Downloads/images/000004519.png'
p1492
sI1492
S'/Users/zhenzhenweng/Downloads/images/000003276.png'
p1493
sI1493
S'/Users/zhenzhenweng/Downloads/images/000000757.png'
p1494
sI1494
S'/Users/zhenzhenweng/Downloads/images/000006326.png'
p1495
sI1495
S'/Users/zhenzhenweng/Downloads/images/000004531.png'
p1496
sI1496
S'/Users/zhenzhenweng/Downloads/images/000004525.png'
p1497
sI1497
S'/Users/zhenzhenweng/Downloads/images/000000743.png'
p1498
sI1498
S'/Users/zhenzhenweng/Downloads/images/000006332.png'
p1499
sI1499
S'/Users/zhenzhenweng/Downloads/images/000000596.png'
p1500
sI1500
S'/Users/zhenzhenweng/Downloads/images/000000582.png'
p1501
sI1501
S'/Users/zhenzhenweng/Downloads/images/000001111.png'
p1502
sI1502
S'/Users/zhenzhenweng/Downloads/images/000000569.png'
p1503
sI1503
S'/Users/zhenzhenweng/Downloads/images/000003074.png'
p1504
sI1504
S'/Users/zhenzhenweng/Downloads/images/000001105.png'
p1505
sI1505
S'/Users/zhenzhenweng/Downloads/images/000000555.png'
p1506
sI1506
S'/Users/zhenzhenweng/Downloads/images/000001139.png'
p1507
sI1507
S'/Users/zhenzhenweng/Downloads/images/000001138.png'
p1508
sI1508
S'/Users/zhenzhenweng/Downloads/images/000003075.png'
p1509
sI1509
S'/Users/zhenzhenweng/Downloads/images/000001104.png'
p1510
sI1510
S'/Users/zhenzhenweng/Downloads/images/000001110.png'
p1511
sI1511
S'/Users/zhenzhenweng/Downloads/images/000000568.png'
p1512
sI1512
S'/Users/zhenzhenweng/Downloads/images/000000583.png'
p1513
sI1513
S'/Users/zhenzhenweng/Downloads/images/000000597.png'
p1514
sI1514
S'/Users/zhenzhenweng/Downloads/images/000006333.png'
p1515
sI1515
S'/Users/zhenzhenweng/Downloads/images/000000742.png'
p1516
sI1516
S'/Users/zhenzhenweng/Downloads/images/000004524.png'
p1517
sI1517
S'/Users/zhenzhenweng/Downloads/images/000004530.png'
p1518
sI1518
S'/Users/zhenzhenweng/Downloads/images/000006327.png'
p1519
sI1519
S'/Users/zhenzhenweng/Downloads/images/000000756.png'
p1520
sI1520
S'/Users/zhenzhenweng/Downloads/images/000001306.png'
p1521
sI1521
S'/Users/zhenzhenweng/Downloads/images/000003277.png'
p1522
sI1522
S'/Users/zhenzhenweng/Downloads/images/000004518.png'
p1523
sI1523
S'/Users/zhenzhenweng/Downloads/images/000003263.png'
p1524
sI1524
S'/Users/zhenzhenweng/Downloads/images/000001312.png'
p1525
sI1525
S'/Users/zhenzhenweng/Downloads/images/000003288.png'
p1526
sI1526
S'/Users/zhenzhenweng/Downloads/images/000005821.png'
p1527
sI1527
S'/Users/zhenzhenweng/Downloads/images/000000781.png'
p1528
sI1528
S'/Users/zhenzhenweng/Downloads/images/000000959.png'
p1529
sI1529
S'/Users/zhenzhenweng/Downloads/images/000000795.png'
p1530
sI1530
S'/Users/zhenzhenweng/Downloads/images/000005835.png'
p1531
sI1531
S'/Users/zhenzhenweng/Downloads/images/000000965.png'
p1532
sI1532
S'/Users/zhenzhenweng/Downloads/images/000005809.png'
p1533
sI1533
S'/Users/zhenzhenweng/Downloads/images/000000971.png'
p1534
sI1534
S'/Users/zhenzhenweng/Downloads/images/000004336.png'
p1535
sI1535
S'/Users/zhenzhenweng/Downloads/images/000000636.png'
p1536
sI1536
S'/Users/zhenzhenweng/Downloads/images/000004450.png'
p1537
sI1537
S'/Users/zhenzhenweng/Downloads/images/000004444.png'
p1538
sI1538
S'/Users/zhenzhenweng/Downloads/images/000000622.png'
p1539
sI1539
S'/Users/zhenzhenweng/Downloads/images/000004322.png'
p1540
sI1540
S'/Users/zhenzhenweng/Downloads/images/000001272.png'
p1541
sI1541
S'/Users/zhenzhenweng/Downloads/images/000005772.png'
p1542
sI1542
S'/Users/zhenzhenweng/Downloads/images/000003303.png'
p1543
sI1543
S'/Users/zhenzhenweng/Downloads/images/000005766.png'
p1544
sI1544
S'/Users/zhenzhenweng/Downloads/images/000004478.png'
p1545
sI1545
S'/Users/zhenzhenweng/Downloads/images/000003317.png'
p1546
sI1546
S'/Users/zhenzhenweng/Downloads/images/000001266.png'
p1547
sI1547
S'/Users/zhenzhenweng/Downloads/images/000004493.png'
p1548
sI1548
S'/Users/zhenzhenweng/Downloads/images/000006284.png'
p1549
sI1549
S'/Users/zhenzhenweng/Downloads/images/000006290.png'
p1550
sI1550
S'/Users/zhenzhenweng/Downloads/images/000000839.png'
p1551
sI1551
S'/Users/zhenzhenweng/Downloads/images/000004487.png'
p1552
sI1552
S'/Users/zhenzhenweng/Downloads/images/000005799.png'
p1553
sI1553
S'/Users/zhenzhenweng/Downloads/images/000001299.png'
p1554
sI1554
S'/Users/zhenzhenweng/Downloads/images/000000811.png'
p1555
sI1555
S'/Users/zhenzhenweng/Downloads/images/000000805.png'
p1556
sI1556
S'/Users/zhenzhenweng/Downloads/images/000001058.png'
p1557
sI1557
S'/Users/zhenzhenweng/Downloads/images/000003129.png'
p1558
sI1558
S'/Users/zhenzhenweng/Downloads/images/000003101.png'
p1559
sI1559
S'/Users/zhenzhenweng/Downloads/images/000001070.png'
p1560
sI1560
S'/Users/zhenzhenweng/Downloads/images/000001064.png'
p1561
sI1561
S'/Users/zhenzhenweng/Downloads/images/000003115.png'
p1562
sI1562
S'/Users/zhenzhenweng/Downloads/images/000001048.png'
p1563
sI1563
S'/Users/zhenzhenweng/Downloads/images/000003139.png'
p1564
sI1564
S'/Users/zhenzhenweng/Downloads/images/000003111.png'
p1565
sI1565
S'/Users/zhenzhenweng/Downloads/images/000001060.png'
p1566
sI1566
S'/Users/zhenzhenweng/Downloads/images/000001074.png'
p1567
sI1567
S'/Users/zhenzhenweng/Downloads/images/000003105.png'
p1568
sI1568
S'/Users/zhenzhenweng/Downloads/images/000004483.png'
p1569
sI1569
S'/Users/zhenzhenweng/Downloads/images/000006294.png'
p1570
sI1570
S'/Users/zhenzhenweng/Downloads/images/000000829.png'
p1571
sI1571
S'/Users/zhenzhenweng/Downloads/images/000005789.png'
p1572
sI1572
S'/Users/zhenzhenweng/Downloads/images/000004497.png'
p1573
sI1573
S'/Users/zhenzhenweng/Downloads/images/000001289.png'
p1574
sI1574
S'/Users/zhenzhenweng/Downloads/images/000000801.png'
p1575
sI1575
S'/Users/zhenzhenweng/Downloads/images/000000815.png'
p1576
sI1576
S'/Users/zhenzhenweng/Downloads/images/000004326.png'
p1577
sI1577
S'/Users/zhenzhenweng/Downloads/images/000000626.png'
p1578
sI1578
S'/Users/zhenzhenweng/Downloads/images/000004440.png'
p1579
sI1579
S'/Users/zhenzhenweng/Downloads/images/000004454.png'
p1580
sI1580
S'/Users/zhenzhenweng/Downloads/images/000000632.png'
p1581
sI1581
S'/Users/zhenzhenweng/Downloads/images/000004332.png'
p1582
sI1582
S'/Users/zhenzhenweng/Downloads/images/000001262.png'
p1583
sI1583
S'/Users/zhenzhenweng/Downloads/images/000003313.png'
p1584
sI1584
S'/Users/zhenzhenweng/Downloads/images/000005762.png'
p1585
sI1585
S'/Users/zhenzhenweng/Downloads/images/000004468.png'
p1586
sI1586
S'/Users/zhenzhenweng/Downloads/images/000003307.png'
p1587
sI1587
S'/Users/zhenzhenweng/Downloads/images/000005776.png'
p1588
sI1588
S'/Users/zhenzhenweng/Downloads/images/000001276.png'
p1589
sI1589
S'/Users/zhenzhenweng/Downloads/images/000005831.png'
p1590
sI1590
S'/Users/zhenzhenweng/Downloads/images/000003298.png'
p1591
sI1591
S'/Users/zhenzhenweng/Downloads/images/000000949.png'
p1592
sI1592
S'/Users/zhenzhenweng/Downloads/images/000000791.png'
p1593
sI1593
S'/Users/zhenzhenweng/Downloads/images/000000785.png'
p1594
sI1594
S'/Users/zhenzhenweng/Downloads/images/000005825.png'
p1595
sI1595
S'/Users/zhenzhenweng/Downloads/images/000000975.png'
p1596
sI1596
S'/Users/zhenzhenweng/Downloads/images/000005819.png'
p1597
sI1597
S'/Users/zhenzhenweng/Downloads/images/000000961.png'
p1598
sI1598
S'/Users/zhenzhenweng/Downloads/images/000000752.png'
p1599
sI1599
S'/Users/zhenzhenweng/Downloads/images/000006323.png'
p1600
sI1600
S'/Users/zhenzhenweng/Downloads/images/000004534.png'
p1601
sI1601
S'/Users/zhenzhenweng/Downloads/images/000004520.png'
p1602
sI1602
S'/Users/zhenzhenweng/Downloads/images/000000746.png'
p1603
sI1603
S'/Users/zhenzhenweng/Downloads/images/000006337.png'
p1604
sI1604
S'/Users/zhenzhenweng/Downloads/images/000001316.png'
p1605
sI1605
S'/Users/zhenzhenweng/Downloads/images/000003267.png'
p1606
sI1606
S'/Users/zhenzhenweng/Downloads/images/000004508.png'
p1607
sI1607
S'/Users/zhenzhenweng/Downloads/images/000003273.png'
p1608
sI1608
S'/Users/zhenzhenweng/Downloads/images/000001302.png'
p1609
sI1609
S'/Users/zhenzhenweng/Downloads/images/000000593.png'
p1610
sI1610
S'/Users/zhenzhenweng/Downloads/images/000000587.png'
p1611
sI1611
S'/Users/zhenzhenweng/Downloads/images/000001128.png'
p1612
sI1612
S'/Users/zhenzhenweng/Downloads/images/000003065.png'
p1613
sI1613
S'/Users/zhenzhenweng/Downloads/images/000001114.png'
p1614
sI1614
S'/Users/zhenzhenweng/Downloads/images/000001100.png'
p1615
sI1615
S'/Users/zhenzhenweng/Downloads/images/000003071.png'
p1616
sI1616
S'/Users/zhenzhenweng/Downloads/images/000000578.png'
p1617
sI1617
S'/Users/zhenzhenweng/Downloads/images/000001101.png'
p1618
sI1618
S'/Users/zhenzhenweng/Downloads/images/000000579.png'
p1619
sI1619
S'/Users/zhenzhenweng/Downloads/images/000003070.png'
p1620
sI1620
S'/Users/zhenzhenweng/Downloads/images/000003064.png'
p1621
sI1621
S'/Users/zhenzhenweng/Downloads/images/000001115.png'
p1622
sI1622
S'/Users/zhenzhenweng/Downloads/images/000001129.png'
p1623
sI1623
S'/Users/zhenzhenweng/Downloads/images/000000586.png'
p1624
sI1624
S'/Users/zhenzhenweng/Downloads/images/000000592.png'
p1625
sI1625
S'/Users/zhenzhenweng/Downloads/images/000003272.png'
p1626
sI1626
S'/Users/zhenzhenweng/Downloads/images/000001303.png'
p1627
sI1627
S'/Users/zhenzhenweng/Downloads/images/000001317.png'
p1628
sI1628
S'/Users/zhenzhenweng/Downloads/images/000004509.png'
p1629
sI1629
S'/Users/zhenzhenweng/Downloads/images/000003266.png'
p1630
sI1630
S'/Users/zhenzhenweng/Downloads/images/000006336.png'
p1631
sI1631
S'/Users/zhenzhenweng/Downloads/images/000000747.png'
p1632
sI1632
S'/Users/zhenzhenweng/Downloads/images/000004521.png'
p1633
sI1633
S'/Users/zhenzhenweng/Downloads/images/000004535.png'
p1634
sI1634
S'/Users/zhenzhenweng/Downloads/images/000006322.png'
p1635
sI1635
S'/Users/zhenzhenweng/Downloads/images/000000753.png'
p1636
sI1636
S'/Users/zhenzhenweng/Downloads/images/000000960.png'
p1637
sI1637
S'/Users/zhenzhenweng/Downloads/images/000005818.png'
p1638
sI1638
S'/Users/zhenzhenweng/Downloads/images/000000974.png'
p1639
sI1639
S'/Users/zhenzhenweng/Downloads/images/000005824.png'
p1640
sI1640
S'/Users/zhenzhenweng/Downloads/images/000000784.png'
p1641
sI1641
S'/Users/zhenzhenweng/Downloads/images/000000790.png'
p1642
sI1642
S'/Users/zhenzhenweng/Downloads/images/000000948.png'
p1643
sI1643
S'/Users/zhenzhenweng/Downloads/images/000003299.png'
p1644
sI1644
S'/Users/zhenzhenweng/Downloads/images/000005830.png'
p1645
sI1645
S'/Users/zhenzhenweng/Downloads/images/000005777.png'
p1646
sI1646
S'/Users/zhenzhenweng/Downloads/images/000003306.png'
p1647
sI1647
S'/Users/zhenzhenweng/Downloads/images/000004469.png'
p1648
sI1648
S'/Users/zhenzhenweng/Downloads/images/000001277.png'
p1649
sI1649
S'/Users/zhenzhenweng/Downloads/images/000001263.png'
p1650
sI1650
S'/Users/zhenzhenweng/Downloads/images/000005763.png'
p1651
sI1651
S'/Users/zhenzhenweng/Downloads/images/000003312.png'
p1652
sI1652
S'/Users/zhenzhenweng/Downloads/images/000000633.png'
p1653
sI1653
S'/Users/zhenzhenweng/Downloads/images/000004455.png'
p1654
sI1654
S'/Users/zhenzhenweng/Downloads/images/000004333.png'
p1655
sI1655
S'/Users/zhenzhenweng/Downloads/images/000004327.png'
p1656
sI1656
S'/Users/zhenzhenweng/Downloads/images/000004441.png'
p1657
sI1657
S'/Users/zhenzhenweng/Downloads/images/000000627.png'
p1658
sI1658
S'/Users/zhenzhenweng/Downloads/images/000000814.png'
p1659
sI1659
S'/Users/zhenzhenweng/Downloads/images/000000800.png'
p1660
sI1660
S'/Users/zhenzhenweng/Downloads/images/000004496.png'
p1661
sI1661
S'/Users/zhenzhenweng/Downloads/images/000005788.png'
p1662
sI1662
S'/Users/zhenzhenweng/Downloads/images/000006281.png'
p1663
sI1663
S'/Users/zhenzhenweng/Downloads/images/000000828.png'
p1664
sI1664
S'/Users/zhenzhenweng/Downloads/images/000001288.png'
p1665
sI1665
S'/Users/zhenzhenweng/Downloads/images/000006295.png'
p1666
sI1666
S'/Users/zhenzhenweng/Downloads/images/000004482.png'
p1667
sI1667
S'/Users/zhenzhenweng/Downloads/images/000001075.png'
p1668
sI1668
S'/Users/zhenzhenweng/Downloads/images/000003104.png'
p1669
sI1669
S'/Users/zhenzhenweng/Downloads/images/000003110.png'
p1670
sI1670
S'/Users/zhenzhenweng/Downloads/images/000001061.png'
p1671
sI1671
S'/Users/zhenzhenweng/Downloads/images/000001049.png'
p1672
sI1672
S'/Users/zhenzhenweng/Downloads/images/000003138.png'
p1673
sI1673
S'/Users/zhenzhenweng/Downloads/images/000001088.png'
p1674
sI1674
S'/Users/zhenzhenweng/Downloads/images/000003106.png'
p1675
sI1675
S'/Users/zhenzhenweng/Downloads/images/000001077.png'
p1676
sI1676
S'/Users/zhenzhenweng/Downloads/images/000001063.png'
p1677
sI1677
S'/Users/zhenzhenweng/Downloads/images/000003112.png'
p1678
sI1678
S'/Users/zhenzhenweng/Downloads/images/000006283.png'
p1679
sI1679
S'/Users/zhenzhenweng/Downloads/images/000004494.png'
p1680
sI1680
S'/Users/zhenzhenweng/Downloads/images/000004480.png'
p1681
sI1681
S'/Users/zhenzhenweng/Downloads/images/000006297.png'
p1682
sI1682
S'/Users/zhenzhenweng/Downloads/images/000000816.png'
p1683
sI1683
S'/Users/zhenzhenweng/Downloads/images/000000802.png'
p1684
sI1684
S'/Users/zhenzhenweng/Downloads/images/000001249.png'
p1685
sI1685
S'/Users/zhenzhenweng/Downloads/images/000004331.png'
p1686
sI1686
S'/Users/zhenzhenweng/Downloads/images/000004457.png'
p1687
sI1687
S'/Users/zhenzhenweng/Downloads/images/000003338.png'
p1688
sI1688
S'/Users/zhenzhenweng/Downloads/images/000005749.png'
p1689
sI1689
S'/Users/zhenzhenweng/Downloads/images/000000631.png'
p1690
sI1690
S'/Users/zhenzhenweng/Downloads/images/000000625.png'
p1691
sI1691
S'/Users/zhenzhenweng/Downloads/images/000004443.png'
p1692
sI1692
S'/Users/zhenzhenweng/Downloads/images/000004325.png'
p1693
sI1693
S'/Users/zhenzhenweng/Downloads/images/000001275.png'
p1694
sI1694
S'/Users/zhenzhenweng/Downloads/images/000003304.png'
p1695
sI1695
S'/Users/zhenzhenweng/Downloads/images/000005775.png'
p1696
sI1696
S'/Users/zhenzhenweng/Downloads/images/000003310.png'
p1697
sI1697
S'/Users/zhenzhenweng/Downloads/images/000005761.png'
p1698
sI1698
S'/Users/zhenzhenweng/Downloads/images/000000619.png'
p1699
sI1699
S'/Users/zhenzhenweng/Downloads/images/000001261.png'
p1700
sI1700
S'/Users/zhenzhenweng/Downloads/images/000004319.png'
p1701
sI1701
S'/Users/zhenzhenweng/Downloads/images/000000786.png'
p1702
sI1702
S'/Users/zhenzhenweng/Downloads/images/000005826.png'
p1703
sI1703
S'/Users/zhenzhenweng/Downloads/images/000005832.png'
p1704
sI1704
S'/Users/zhenzhenweng/Downloads/images/000000792.png'
p1705
sI1705
S'/Users/zhenzhenweng/Downloads/images/000000962.png'
p1706
sI1706
S'/Users/zhenzhenweng/Downloads/images/000000976.png'
p1707
sI1707
S'/Users/zhenzhenweng/Downloads/images/000004523.png'
p1708
sI1708
S'/Users/zhenzhenweng/Downloads/images/000000745.png'
p1709
sI1709
S'/Users/zhenzhenweng/Downloads/images/000006334.png'
p1710
sI1710
S'/Users/zhenzhenweng/Downloads/images/000000751.png'
p1711
sI1711
S'/Users/zhenzhenweng/Downloads/images/000006320.png'
p1712
sI1712
S'/Users/zhenzhenweng/Downloads/images/000000989.png'
p1713
sI1713
S'/Users/zhenzhenweng/Downloads/images/000003258.png'
p1714
sI1714
S'/Users/zhenzhenweng/Downloads/images/000004537.png'
p1715
sI1715
S'/Users/zhenzhenweng/Downloads/images/000001329.png'
p1716
sI1716
S'/Users/zhenzhenweng/Downloads/images/000001301.png'
p1717
sI1717
S'/Users/zhenzhenweng/Downloads/images/000000779.png'
p1718
sI1718
S'/Users/zhenzhenweng/Downloads/images/000006308.png'
p1719
sI1719
S'/Users/zhenzhenweng/Downloads/images/000003270.png'
p1720
sI1720
S'/Users/zhenzhenweng/Downloads/images/000003264.png'
p1721
sI1721
S'/Users/zhenzhenweng/Downloads/images/000001315.png'
p1722
sI1722
S'/Users/zhenzhenweng/Downloads/images/000000584.png'
p1723
sI1723
S'/Users/zhenzhenweng/Downloads/images/000000590.png'
p1724
sI1724
S'/Users/zhenzhenweng/Downloads/images/000003099.png'
p1725
sI1725
S'/Users/zhenzhenweng/Downloads/images/000003072.png'
p1726
sI1726
S'/Users/zhenzhenweng/Downloads/images/000001103.png'
p1727
sI1727
S'/Users/zhenzhenweng/Downloads/images/000001117.png'
p1728
sI1728
S'/Users/zhenzhenweng/Downloads/images/000003066.png'
p1729
sI1729
S'/Users/zhenzhenweng/Downloads/images/000001116.png'
p1730
sI1730
S'/Users/zhenzhenweng/Downloads/images/000003067.png'
p1731
sI1731
S'/Users/zhenzhenweng/Downloads/images/000003073.png'
p1732
sI1732
S'/Users/zhenzhenweng/Downloads/images/000001102.png'
p1733
sI1733
S'/Users/zhenzhenweng/Downloads/images/000003098.png'
p1734
sI1734
S'/Users/zhenzhenweng/Downloads/images/000000591.png'
p1735
sI1735
S'/Users/zhenzhenweng/Downloads/images/000000585.png'
p1736
sI1736
S'/Users/zhenzhenweng/Downloads/images/000003265.png'
p1737
sI1737
S'/Users/zhenzhenweng/Downloads/images/000001314.png'
p1738
sI1738
S'/Users/zhenzhenweng/Downloads/images/000001300.png'
p1739
sI1739
S'/Users/zhenzhenweng/Downloads/images/000003271.png'
p1740
sI1740
S'/Users/zhenzhenweng/Downloads/images/000006309.png'
p1741
sI1741
S'/Users/zhenzhenweng/Downloads/images/000000778.png'
p1742
sI1742
S'/Users/zhenzhenweng/Downloads/images/000004536.png'
p1743
sI1743
S'/Users/zhenzhenweng/Downloads/images/000003259.png'
p1744
sI1744
S'/Users/zhenzhenweng/Downloads/images/000000988.png'
p1745
sI1745
S'/Users/zhenzhenweng/Downloads/images/000006321.png'
p1746
sI1746
S'/Users/zhenzhenweng/Downloads/images/000000750.png'
p1747
sI1747
S'/Users/zhenzhenweng/Downloads/images/000001328.png'
p1748
sI1748
S'/Users/zhenzhenweng/Downloads/images/000006335.png'
p1749
sI1749
S'/Users/zhenzhenweng/Downloads/images/000000744.png'
p1750
sI1750
S'/Users/zhenzhenweng/Downloads/images/000004522.png'
p1751
sI1751
S'/Users/zhenzhenweng/Downloads/images/000000977.png'
p1752
sI1752
S'/Users/zhenzhenweng/Downloads/images/000000963.png'
p1753
sI1753
S'/Users/zhenzhenweng/Downloads/images/000000793.png'
p1754
sI1754
S'/Users/zhenzhenweng/Downloads/images/000005833.png'
p1755
sI1755
S'/Users/zhenzhenweng/Downloads/images/000005827.png'
p1756
sI1756
S'/Users/zhenzhenweng/Downloads/images/000000787.png'
p1757
sI1757
S'/Users/zhenzhenweng/Downloads/images/000000618.png'
p1758
sI1758
S'/Users/zhenzhenweng/Downloads/images/000005760.png'
p1759
sI1759
S'/Users/zhenzhenweng/Downloads/images/000003311.png'
p1760
sI1760
S'/Users/zhenzhenweng/Downloads/images/000004318.png'
p1761
sI1761
S'/Users/zhenzhenweng/Downloads/images/000001260.png'
p1762
sI1762
S'/Users/zhenzhenweng/Downloads/images/000001274.png'
p1763
sI1763
S'/Users/zhenzhenweng/Downloads/images/000005774.png'
p1764
sI1764
S'/Users/zhenzhenweng/Downloads/images/000003305.png'
p1765
sI1765
S'/Users/zhenzhenweng/Downloads/images/000004442.png'
p1766
sI1766
S'/Users/zhenzhenweng/Downloads/images/000000624.png'
p1767
sI1767
S'/Users/zhenzhenweng/Downloads/images/000004324.png'
p1768
sI1768
S'/Users/zhenzhenweng/Downloads/images/000004330.png'
p1769
sI1769
S'/Users/zhenzhenweng/Downloads/images/000001248.png'
p1770
sI1770
S'/Users/zhenzhenweng/Downloads/images/000000630.png'
p1771
sI1771
S'/Users/zhenzhenweng/Downloads/images/000005748.png'
p1772
sI1772
S'/Users/zhenzhenweng/Downloads/images/000003339.png'
p1773
sI1773
S'/Users/zhenzhenweng/Downloads/images/000004456.png'
p1774
sI1774
S'/Users/zhenzhenweng/Downloads/images/000000803.png'
p1775
sI1775
S'/Users/zhenzhenweng/Downloads/images/000000817.png'
p1776
sI1776
S'/Users/zhenzhenweng/Downloads/images/000006296.png'
p1777
sI1777
S'/Users/zhenzhenweng/Downloads/images/000004481.png'
p1778
sI1778
S'/Users/zhenzhenweng/Downloads/images/000004495.png'
p1779
sI1779
S'/Users/zhenzhenweng/Downloads/images/000006282.png'
p1780
sI1780
S'/Users/zhenzhenweng/Downloads/images/000001062.png'
p1781
sI1781
S'/Users/zhenzhenweng/Downloads/images/000003113.png'
p1782
sI1782
S'/Users/zhenzhenweng/Downloads/images/000003107.png'
p1783
sI1783
S'/Users/zhenzhenweng/Downloads/images/000001076.png'
p1784
sI1784
S'/Users/zhenzhenweng/Downloads/images/000001089.png'
p1785
s.